(dp1
S'output'
p2
S"<type 'exceptions.TypeError'> append() takes exactly one argument (2 given)"
p3
sS'layer'
p4
S'/home/manmeet/web2py/applications/scrumlite/views/default/index.html'
p5
sS'code'
p6
S'left_sidebar_enabled,right_sidebar_enabled=False,(\'message\' in globals())\nresponse.write(\'\\n\', escape=False)\nresponse.write(\'<script type="text/javascript"><!--\\n    // These variables are used by the web2py_ajax_init function in web2py_ajax.js (which is loaded below).\\n    var w2p_ajax_confirm_message = "\', escape=False)\nresponse.write(T(\'Are you sure you want to delete this object?\'))\nresponse.write(\'";\\n    var w2p_ajax_disable_with_message = "\', escape=False)\nresponse.write(T(\'Working...\'))\nresponse.write(\'";\\n    var w2p_ajax_date_format = "\', escape=False)\nresponse.write(T(\'%Y-%m-%d\'))\nresponse.write(\'";\\n    var w2p_ajax_datetime_format = "\', escape=False)\nresponse.write(T(\'%Y-%m-%d %H:%M:%S\'))\nresponse.write(\'";\\n    var ajax_error_500 = \\\'\', escape=False)\nresponse.write(T.M(\'An error occured, please [[reload %s]] the page\') % URL(args=request.args, vars=request.get_vars))\nresponse.write("\'\\n    //--></script>\\n", escape=False)\nresponse.files.insert(0,URL(\'static\',\'js/jquery.js\'))\nresponse.files.insert(1,URL(\'static\',\'css/calendar.css\'))\nresponse.files.insert(2,URL(\'static\',\'js/calendar.js\'))\nresponse.files.insert(3,URL(\'static\',\'js/web2py.js\'))\nresponse.include_meta()\nresponse.include_files()\nresponse.write(\'\\n\', escape=False)\nresponse.write(\'\\n\', escape=False)\nresponse.files.append(0, URL(\'static\',\'js/jquery.min.js\'))\nresponse.files.append(URL(\'static\',\'js/jquery.dropotron.min.js\'))\nresponse.files.append(URL(\'static\',\'js/skel-layers.min.js\'))\nresponse.files.append(URL(\'static\',\'js/init.js\'))\nresponse.files.append(URL(\'static\',\'css/style.css\'))\nresponse.files.append(URL(\'static\',\'css/skel.css\'))\nresponse.files.append(URL(\'static\',\'images/pic02.jpg\'))\nresponse.files.append(URL(\'static\',\'images/pic03.jpg\'))\nresponse.files.append(URL(\'static\',\'images/pic04.jpg\'))\nresponse.write(\'\\n\\n<!DOCTYPE HTML>\\n<!--\\n\\tHorizons by TEMPLATED\\n\\ttemplated.co @templatedco\\n\\tReleased for free under the Creative Commons Attribution 3.0 license (templated.co/license)\\n-->\\n\\n<html>\\n\\t<head>\\n\\t\\t<title>Horizons by TEMPLATED</title>\\n\\t\\t<meta http-equiv="content-type" content="text/html; charset=utf-8" />\\n\\t\\t<meta name="description" content="" />\\n\\t\\t<meta name="keywords" content="" />\\n\\t\\t<!--[if lte IE 8]><script src="css/ie/html5shiv.js"></script><![endif]-->\\n\\t\\t<script src="js/jquery.min.js"></script>\\n\\t\\t<script src="jquery.dropotron.min.js"></script>\\n\\t\\t<script src="skel.min.js"></script>\\n\\t\\t<script src="skel-layers.min.js"></script>\\n\\t\\t<script src="init.js"></script>\\n\\t\\t<noscript>\\n\\t\\t\\t<link rel="stylesheet" href="css/skel.css" />\\n\\t\\t\\t<link rel="stylesheet" href="css/style.css" />\\n\\t\\t</noscript>\\n\\t\\t<!--[if lte IE 8]><link rel="stylesheet" href="css/ie/v8.css" /><![endif]-->\\n\\t</head>\\n\\t<body class="homepage">\\n\\n\\t\\t<!-- Header -->\\n\\t\\t\\t<div id="header">\\n\\t\\t\\t\\t<div class="container">\\n\\n\\t\\t\\t\\t\\t<!-- Logo -->\\n\\t\\t\\t\\t\\t\\t<h1><a href="#" id="logo">Horizons</a></h1>\\n\\n\\t\\t\\t\\t\\t<!-- Nav -->\\n\\t\\t\\t\\t\\t\\t<nav id="nav">\\n\\t\\t\\t\\t\\t\\t\\t<ul>\\n\\t\\t\\t\\t\\t\\t\\t\\t<li><a href="index.html">Home</a></li>\\n\\t\\t\\t\\t\\t\\t\\t\\t<li>\\n\\t\\t\\t\\t\\t\\t\\t\\t\\t<a href="">Dropdown</a>\\n\\t\\t\\t\\t\\t\\t\\t\\t\\t<ul>\\n\\t\\t\\t\\t\\t\\t\\t\\t\\t\\t<li><a href="#">Lorem ipsum dolor</a></li>\\n\\t\\t\\t\\t\\t\\t\\t\\t\\t\\t<li><a href="#">Magna phasellus</a></li>\\n\\t\\t\\t\\t\\t\\t\\t\\t\\t\\t<li><a href="#">Etiam dolore nisl</a></li>\\n\\t\\t\\t\\t\\t\\t\\t\\t\\t\\t<li>\\n\\t\\t\\t\\t\\t\\t\\t\\t\\t\\t\\t<a href="">Phasellus consequat</a>\\n\\t\\t\\t\\t\\t\\t\\t\\t\\t\\t\\t<ul>\\n\\t\\t\\t\\t\\t\\t\\t\\t\\t\\t\\t\\t<li><a href="#">Lorem ipsum dolor</a></li>\\n\\t\\t\\t\\t\\t\\t\\t\\t\\t\\t\\t\\t<li><a href="#">Phasellus consequat</a></li>\\n\\t\\t\\t\\t\\t\\t\\t\\t\\t\\t\\t\\t<li><a href="#">Magna phasellus</a></li>\\n\\t\\t\\t\\t\\t\\t\\t\\t\\t\\t\\t\\t<li><a href="#">Etiam dolore nisl</a></li>\\n\\t\\t\\t\\t\\t\\t\\t\\t\\t\\t\\t\\t<li><a href="#">Veroeros feugiat</a></li>\\n\\t\\t\\t\\t\\t\\t\\t\\t\\t\\t\\t</ul>\\n\\t\\t\\t\\t\\t\\t\\t\\t\\t\\t</li>\\n\\t\\t\\t\\t\\t\\t\\t\\t\\t\\t<li><a href="#">Veroeros feugiat</a></li>\\n\\t\\t\\t\\t\\t\\t\\t\\t\\t</ul>\\n\\t\\t\\t\\t\\t\\t\\t\\t</li>\\n\\t\\t\\t\\t\\t\\t\\t\\t<li><a href="left-sidebar.html">Left Sidebar</a></li>\\n\\t\\t\\t\\t\\t\\t\\t\\t<li><a href="right-sidebar.html">Right Sidebar</a></li>\\n\\t\\t\\t\\t\\t\\t\\t\\t<li><a href="no-sidebar.html">No Sidebar</a></li>\\n\\t\\t\\t\\t\\t\\t\\t</ul>\\n\\t\\t\\t\\t\\t\\t</nav>\\n\\n\\n\\t\\t\\t\\t\\t<!-- Banner -->\\n\\t\\t\\t\\t\\t\\t<div id="banner">\\n\\t\\t\\t\\t\\t\\t\\t<div class="container">\\n\\t\\t\\t\\t\\t\\t\\t\\t<section>\\n\\t\\t\\t\\t\\t\\t\\t\\t\\t<header class="major">\\n\\t\\t\\t\\t\\t\\t\\t\\t\\t\\t<h2>Welcome to Horizons!</h2>\\n\\t\\t\\t\\t\\t\\t\\t\\t\\t\\t<span class="byline">&hellip; a responsive HTML5 site template freebie by <a href="http://templated.co">TEMPLATED</a>. Released for free under the <a href="http://templated.co/license">Creative Commons Attribution</a> license, so use it for whatever (personal or commercial) &ndash; just give us credit!</span>\\n\\t\\t\\t\\t\\t\\t\\t\\t\\t</header>\\n\\t\\t\\t\\t\\t\\t\\t\\t\\t<a href="#" class="button alt">Sign Up</a>\\n\\t\\t\\t\\t\\t\\t\\t\\t</section>\\n\\t\\t\\t\\t\\t\\t\\t</div>\\n\\t\\t\\t\\t\\t\\t</div>\\n\\n\\t\\t\\t\\t</div>\\n\\t\\t\\t</div>\\n\\n\\t\\t<!-- Featured -->\\n\\t\\t\\t<div class="wrapper style2">\\n\\t\\t\\t\\t<section class="container">\\n\\t\\t\\t\\t\\t<header class="major">\\n\\t\\t\\t\\t\\t\\t<h2>Nulla luctus eleifend</h2>\\n\\t\\t\\t\\t\\t\\t<span class="byline">Mauris vulputate dolor sit amet nibh</span>\\n\\t\\t\\t\\t\\t</header>\\n\\t\\t\\t\\t\\t<div class="row no-collapse-1">\\n\\t\\t\\t\\t\\t\\t<section class="4u">\\n\\t\\t\\t\\t\\t\\t\\t<a href="#" class="image feature"><img src="images/pic02.jpg" alt=""></a>\\n\\t\\t\\t\\t\\t\\t\\t<p>Nam in massa. Sed vel tellus. Curabitur sem urna, consequat vel, suscipit in, mattis placerat.</p>\\n\\t\\t\\t\\t\\t\\t</section>\\n\\t\\t\\t\\t\\t\\t<section class="4u">\\n\\t\\t\\t\\t\\t\\t\\t<a href="#" class="image feature"><img src="images/pic03.jpg" alt=""></a>\\n\\t\\t\\t\\t\\t\\t\\t<p>Donec ornare neque ac sem. Mauris aliquet. Aliquam sem leo, vulputate sed, convallis. Donec magna.</p>\\n\\t\\t\\t\\t\\t\\t</section>\\n\\t\\t\\t\\t\\t\\t<section class="4u">\\n\\t\\t\\t\\t\\t\\t\\t<a href="#" class="image feature"><img src="images/pic04.jpg" alt=""></a>\\n\\t\\t\\t\\t\\t\\t\\t<p>Curabitur sem urna, consequat vel, suscipit convallis sem leo, mattis placerat, nulla. Sed ac leo.</p>\\n\\t\\t\\t\\t\\t\\t</section>\\n\\n\\t\\t\\t\\t\\t</div>\\n\\t\\t\\t\\t</section>\\n\\t\\t\\t</div>\\n\\n\\t\\t<!-- Main -->\\n\\t\\t\\t<div id="main" class="wrapper style1">\\n\\t\\t\\t\\t<section class="container">\\n\\t\\t\\t\\t\\t<header class="major">\\n\\t\\t\\t\\t\\t\\t<h2>Nulla luctus eleifend</h2>\\n\\t\\t\\t\\t\\t\\t<span class="byline">Mauris vulputate dolor sit amet nibh</span>\\n\\t\\t\\t\\t\\t</header>\\n\\t\\t\\t\\t\\t<div class="row">\\n\\n\\t\\t\\t\\t\\t\\t<!-- Content -->\\n\\t\\t\\t\\t\\t\\t\\t<div class="6u">\\n\\t\\t\\t\\t\\t\\t\\t\\t<section>\\n\\t\\t\\t\\t\\t\\t\\t\\t\\t<ul class="style">\\n\\t\\t\\t\\t\\t\\t\\t\\t\\t\\t<li>\\n\\t\\t\\t\\t\\t\\t\\t\\t\\t\\t\\t<span class="fa fa-wrench"></span>\\n\\t\\t\\t\\t\\t\\t\\t\\t\\t\\t\\t<h3>Integer ultrices</h3>\\n\\t\\t\\t\\t\\t\\t\\t\\t\\t\\t\\t<span>In posuere eleifend odio. Quisque semper augue mattis wisi. Maecenas ligula. Pellentesque viverra vulputate enim.</span>\\n\\t\\t\\t\\t\\t\\t\\t\\t\\t\\t</li>\\n\\t\\t\\t\\t\\t\\t\\t\\t\\t\\t<li>\\n\\t\\t\\t\\t\\t\\t\\t\\t\\t\\t\\t<span class="fa fa-cloud"></span>\\n\\t\\t\\t\\t\\t\\t\\t\\t\\t\\t\\t<h3>Aliquam luctus</h3>\\n\\t\\t\\t\\t\\t\\t\\t\\t\\t\\t\\t<span>Pellentesque viverra vulputate enim. Aliquam erat volutpat. Maecenas condimentum enim tincidunt risus accumsan.</span>\\n\\t\\t\\t\\t\\t\\t\\t\\t\\t\\t</li>\\n\\t\\t\\t\\t\\t\\t\\t\\t\\t</ul>\\n\\t\\t\\t\\t\\t\\t\\t\\t</section>\\n\\t\\t\\t\\t\\t\\t\\t</div>\\n\\t\\t\\t\\t\\t\\t\\t<div class="6u">\\n\\t\\t\\t\\t\\t\\t\\t\\t<section>\\n\\t\\t\\t\\t\\t\\t\\t\\t\\t<ul class="style">\\n\\t\\t\\t\\t\\t\\t\\t\\t\\t\\t<li>\\n\\t\\t\\t\\t\\t\\t\\t\\t\\t\\t\\t<span class="fa fa-cogs"></span>\\n\\t\\t\\t\\t\\t\\t\\t\\t\\t\\t\\t<h3>Integer ultrices</h3>\\n\\t\\t\\t\\t\\t\\t\\t\\t\\t\\t\\t<span>In posuere eleifend odio. Quisque semper augue mattis wisi. Maecenas ligula. Pellentesque viverra vulputate enim.</span>\\n\\t\\t\\t\\t\\t\\t\\t\\t\\t\\t</li>\\n\\t\\t\\t\\t\\t\\t\\t\\t\\t\\t<li>\\n\\t\\t\\t\\t\\t\\t\\t\\t\\t\\t\\t<span class="fa fa-leaf"></span>\\n\\t\\t\\t\\t\\t\\t\\t\\t\\t\\t\\t<h3>Aliquam luctus</h3>\\n\\t\\t\\t\\t\\t\\t\\t\\t\\t\\t\\t<span>Pellentesque viverra vulputate enim. Aliquam erat volutpat. Maecenas condimentum enim tincidunt risus accumsan.</span>\\n\\t\\t\\t\\t\\t\\t\\t\\t\\t\\t</li>\\n\\t\\t\\t\\t\\t\\t\\t\\t\\t</ul>\\n\\t\\t\\t\\t\\t\\t\\t\\t</section>\\n\\t\\t\\t\\t\\t\\t\\t</div>\\n\\n\\t\\t\\t\\t\\t</div>\\n\\t\\t\\t\\t</section>\\n\\t\\t\\t</div>\\n\\n\\t\\t<!-- Footer -->\\n\\t\\t\\t<div id="footer">\\n\\t\\t\\t\\t<div class="container">\\n\\n\\t\\t\\t\\t\\t<!-- Lists -->\\n\\t\\t\\t\\t\\t\\t<div class="row">\\n\\t\\t\\t\\t\\t\\t\\t<div class="8u">\\n\\t\\t\\t\\t\\t\\t\\t\\t<section>\\n\\t\\t\\t\\t\\t\\t\\t\\t\\t<header class="major">\\n\\t\\t\\t\\t\\t\\t\\t\\t\\t\\t<h2>Donec dictum metus</h2>\\n\\t\\t\\t\\t\\t\\t\\t\\t\\t\\t<span class="byline">Quisque semper augue mattis wisi maecenas ligula</span>\\n\\t\\t\\t\\t\\t\\t\\t\\t\\t</header>\\n\\t\\t\\t\\t\\t\\t\\t\\t\\t<div class="row">\\n\\t\\t\\t\\t\\t\\t\\t\\t\\t\\t<section class="6u">\\n\\t\\t\\t\\t\\t\\t\\t\\t\\t\\t\\t<ul class="default">\\n\\t\\t\\t\\t\\t\\t\\t\\t\\t\\t\\t\\t<li><a href="#">Pellentesque elit non gravida blandit.</a></li>\\n\\t\\t\\t\\t\\t\\t\\t\\t\\t\\t\\t\\t<li><a href="#">Lorem ipsum dolor consectetuer elit.</a></li>\\n\\t\\t\\t\\t\\t\\t\\t\\t\\t\\t\\t\\t<li><a href="#">Phasellus nibh pellentesque congue.</a></li>\\n\\t\\t\\t\\t\\t\\t\\t\\t\\t\\t\\t\\t<li><a href="#">Cras vitae metus aliquam  pharetra.</a></li>\\n\\t\\t\\t\\t\\t\\t\\t\\t\\t\\t\\t</ul>\\n\\t\\t\\t\\t\\t\\t\\t\\t\\t\\t</section>\\n\\t\\t\\t\\t\\t\\t\\t\\t\\t\\t<section class="6u">\\n\\t\\t\\t\\t\\t\\t\\t\\t\\t\\t\\t<ul class="default">\\n\\t\\t\\t\\t\\t\\t\\t\\t\\t\\t\\t\\t<li><a href="#">Pellentesque elit non gravida blandit.</a></li>\\n\\t\\t\\t\\t\\t\\t\\t\\t\\t\\t\\t\\t<li><a href="#">Lorem ipsum dolor consectetuer elit.</a></li>\\n\\t\\t\\t\\t\\t\\t\\t\\t\\t\\t\\t\\t<li><a href="#">Phasellus nibh pellentesque congue.</a></li>\\n\\t\\t\\t\\t\\t\\t\\t\\t\\t\\t\\t\\t<li><a href="#">Cras vitae metus aliquam  pharetra.</a></li>\\n\\t\\t\\t\\t\\t\\t\\t\\t\\t\\t\\t</ul>\\n\\t\\t\\t\\t\\t\\t\\t\\t\\t\\t</section>\\n\\t\\t\\t\\t\\t\\t\\t\\t\\t</div>\\n\\t\\t\\t\\t\\t\\t\\t\\t</section>\\n\\t\\t\\t\\t\\t\\t\\t</div>\\n\\t\\t\\t\\t\\t\\t\\t<div class="4u">\\n\\t\\t\\t\\t\\t\\t\\t\\t<section>\\n\\t\\t\\t\\t\\t\\t\\t\\t\\t<header class="major">\\n\\t\\t\\t\\t\\t\\t\\t\\t\\t\\t<h2>Donec dictum metus</h2>\\n\\t\\t\\t\\t\\t\\t\\t\\t\\t\\t<span class="byline">Mattis wisi maecenas ligula</span>\\n\\t\\t\\t\\t\\t\\t\\t\\t\\t</header>\\n\\t\\t\\t\\t\\t\\t\\t\\t\\t<ul class="contact">\\n\\t\\t\\t\\t\\t\\t\\t\\t\\t\\t<li>\\n\\t\\t\\t\\t\\t\\t\\t\\t\\t\\t\\t<span class="address">Address</span>\\n\\t\\t\\t\\t\\t\\t\\t\\t\\t\\t\\t<span>1234 Somewhere Road #4285 <br />Nashville, TN 00000</span>\\n\\t\\t\\t\\t\\t\\t\\t\\t\\t\\t</li>\\n\\t\\t\\t\\t\\t\\t\\t\\t\\t\\t<li>\\n\\t\\t\\t\\t\\t\\t\\t\\t\\t\\t\\t<span class="mail">Mail</span>\\n\\t\\t\\t\\t\\t\\t\\t\\t\\t\\t\\t<span><a href="#">someone@untitled.tld</a></span>\\n\\t\\t\\t\\t\\t\\t\\t\\t\\t\\t</li>\\n\\t\\t\\t\\t\\t\\t\\t\\t\\t\\t<li>\\n\\t\\t\\t\\t\\t\\t\\t\\t\\t\\t\\t<span class="phone">Phone</span>\\n\\t\\t\\t\\t\\t\\t\\t\\t\\t\\t\\t<span>(000) 000-0000</span>\\n\\t\\t\\t\\t\\t\\t\\t\\t\\t\\t</li>\\n\\t\\t\\t\\t\\t\\t\\t\\t\\t</ul>\\n\\t\\t\\t\\t\\t\\t\\t\\t</section>\\n\\t\\t\\t\\t\\t\\t\\t</div>\\n\\t\\t\\t\\t\\t\\t</div>\\n\\n\\t\\t\\t\\t\\t<!-- Copyright -->\\n\\t\\t\\t\\t\\t\\t<div class="copyright">\\n\\t\\t\\t\\t\\t\\t\\tDesign: <a href="http://templated.co">TEMPLATED</a> Images: <a href="http://unsplash.com">Unsplash</a> (<a href="http://unsplash.com/cc0">CC0</a>)\\n\\t\\t\\t\\t\\t\\t</div>\\n\\n\\t\\t\\t\\t</div>\\n\\t\\t\\t</div>\\n\\n\\t</body>\\n</html>\\n\', escape=False)'
p7
sS'snapshot'
p8
(dp9
S'exception'
p10
(dp11
S'__hash__'
p12
S"<method-wrapper '__hash__' of exceptions.TypeError object>"
p13
sS'__setattr__'
p14
S"<method-wrapper '__setattr__' of exceptions.TypeError object>"
p15
sS'__reduce_ex__'
p16
S'<built-in method __reduce_ex__ of exceptions.TypeError object>'
p17
sS'__getslice__'
p18
S"<method-wrapper '__getslice__' of exceptions.TypeError object>"
p19
sS'__getitem__'
p20
S"<method-wrapper '__getitem__' of exceptions.TypeError object>"
p21
sS'__setstate__'
p22
S'<built-in method __setstate__ of exceptions.TypeError object>'
p23
sS'args'
p24
S"('append() takes exactly one argument (2 given)',)"
p25
sS'__reduce__'
p26
S'<built-in method __reduce__ of exceptions.TypeError object>'
p27
sS'__str__'
p28
S"<method-wrapper '__str__' of exceptions.TypeError object>"
p29
sS'__format__'
p30
S'<built-in method __format__ of exceptions.TypeError object>'
p31
sS'__getattribute__'
p32
S"<method-wrapper '__getattribute__' of exceptions.TypeError object>"
p33
sS'__class__'
p34
S"<type 'exceptions.TypeError'>"
p35
sS'__unicode__'
p36
S'<built-in method __unicode__ of exceptions.TypeError object>'
p37
sS'__delattr__'
p38
S"<method-wrapper '__delattr__' of exceptions.TypeError object>"
p39
sS'__subclasshook__'
p40
S'<built-in method __subclasshook__ of type object>'
p41
sS'__repr__'
p42
S"<method-wrapper '__repr__' of exceptions.TypeError object>"
p43
sS'__dict__'
p44
S'{}'
p45
sS'__sizeof__'
p46
S'<built-in method __sizeof__ of exceptions.TypeError object>'
p47
sS'__doc__'
p48
S"'Inappropriate argument type.'"
p49
sS'__init__'
p50
S"<method-wrapper '__init__' of exceptions.TypeError object>"
p51
sS'__new__'
p52
S'<built-in method __new__ of type object>'
p53
ssS'evalue'
p54
S'append() takes exactly one argument (2 given)'
p55
sS'request'
p56
cgluon.html
XML_unpickle
p57
(S'sm[\x00\x00<div><table><tr><td style="font-weight:bold;vertical-align:top;">ajax</td><td style="vertical-align:top;">:</td><td><div>False</div></td></tr><tr><td style="font-weight:bold;vertical-align:top;">application</td><td style="vertical-align:top;">:</td><td><div>scrumlite</div></td></tr><tr><td style="font-weight:bold;vertical-align:top;">args</td><td style="vertical-align:top;">:</td><td><div><table></table></div></td></tr><tr><td style="font-weight:bold;vertical-align:top;">cid</td><td style="vertical-align:top;">:</td><td><div>None</div></td></tr><tr><td style="font-weight:bold;vertical-align:top;">client</td><td style="vertical-align:top;">:</td><td><div>127.0.0.1</div></td></tr><tr><td style="font-weight:bold;vertical-align:top;">controller</td><td style="vertical-align:top;">:</td><td><div>default</div></td></tr><tr><td style="font-weight:bold;vertical-align:top;">cookies</td><td style="vertical-align:top;">:</td><td><div><table><tr><td style="font-weight:bold;vertical-align:top;">session_id_admin</td><td style="vertical-align:top;">:</td><td><div>127.0.0.1-5769ca20-5c94-4a94-9164-c993927a42b9<table><tr><td style="font-weight:bold;vertical-align:top;">comment</td><td style="vertical-align:top;">:</td><td><div></div></td></tr><tr><td style="font-weight:bold;vertical-align:top;">domain</td><td style="vertical-align:top;">:</td><td><div></div></td></tr><tr><td style="font-weight:bold;vertical-align:top;">expires</td><td style="vertical-align:top;">:</td><td><div></div></td></tr><tr><td style="font-weight:bold;vertical-align:top;">httponly</td><td style="vertical-align:top;">:</td><td><div></div></td></tr><tr><td style="font-weight:bold;vertical-align:top;">max-age</td><td style="vertical-align:top;">:</td><td><div></div></td></tr><tr><td style="font-weight:bold;vertical-align:top;">path</td><td style="vertical-align:top;">:</td><td><div></div></td></tr><tr><td style="font-weight:bold;vertical-align:top;">secure</td><td style="vertical-align:top;">:</td><td><div></div></td></tr><tr><td style="font-weight:bold;vertical-align:top;">version</td><td style="vertical-align:top;">:</td><td><div></div></td></tr></table></div></td></tr><tr><td style="font-weight:bold;vertical-align:top;">session_id_scrumlite</td><td style="vertical-align:top;">:</td><td><div>127.0.0.1-14170de5-4226-432a-8022-79d817b0dea1<table><tr><td style="font-weight:bold;vertical-align:top;">comment</td><td style="vertical-align:top;">:</td><td><div></div></td></tr><tr><td style="font-weight:bold;vertical-align:top;">domain</td><td style="vertical-align:top;">:</td><td><div></div></td></tr><tr><td style="font-weight:bold;vertical-align:top;">expires</td><td style="vertical-align:top;">:</td><td><div></div></td></tr><tr><td style="font-weight:bold;vertical-align:top;">httponly</td><td style="vertical-align:top;">:</td><td><div></div></td></tr><tr><td style="font-weight:bold;vertical-align:top;">max-age</td><td style="vertical-align:top;">:</td><td><div></div></td></tr><tr><td style="font-weight:bold;vertical-align:top;">path</td><td style="vertical-align:top;">:</td><td><div></div></td></tr><tr><td style="font-weight:bold;vertical-align:top;">secure</td><td style="vertical-align:top;">:</td><td><div></div></td></tr><tr><td style="font-weight:bold;vertical-align:top;">version</td><td style="vertical-align:top;">:</td><td><div></div></td></tr></table></div></td></tr><tr><td style="font-weight:bold;vertical-align:top;">session_id_welcome</td><td style="vertical-align:top;">:</td><td><div>127.0.0.1-50835afe-bcfe-4c57-ace5-f1cb8ec865c3<table><tr><td style="font-weight:bold;vertical-align:top;">comment</td><td style="vertical-align:top;">:</td><td><div></div></td></tr><tr><td style="font-weight:bold;vertical-align:top;">domain</td><td style="vertical-align:top;">:</td><td><div></div></td></tr><tr><td style="font-weight:bold;vertical-align:top;">expires</td><td style="vertical-align:top;">:</td><td><div></div></td></tr><tr><td style="font-weight:bold;vertical-align:top;">httponly</td><td style="vertical-align:top;">:</td><td><div></div></td></tr><tr><td style="font-weight:bold;vertical-align:top;">max-age</td><td style="vertical-align:top;">:</td><td><div></div></td></tr><tr><td style="font-weight:bold;vertical-align:top;">path</td><td style="vertical-align:top;">:</td><td><div></div></td></tr><tr><td style="font-weight:bold;vertical-align:top;">secure</td><td style="vertical-align:top;">:</td><td><div></div></td></tr><tr><td style="font-weight:bold;vertical-align:top;">version</td><td style="vertical-align:top;">:</td><td><div></div></td></tr></table></div></td></tr></table></div></td></tr><tr><td style="font-weight:bold;vertical-align:top;">env</td><td style="vertical-align:top;">:</td><td><div><table><tr><td style="font-weight:bold;vertical-align:top;">HTTP_ACCEPT</td><td style="vertical-align:top;">:</td><td><div>text/html,application/xhtml+xml,application/xml;q=0.9,image/webp,*/*;q=0.8</div></td></tr><tr><td style="font-weight:bold;vertical-align:top;">HTTP_ACCEPT_ENCODING</td><td style="vertical-align:top;">:</td><td><div>gzip, deflate, sdch</div></td></tr><tr><td style="font-weight:bold;vertical-align:top;">HTTP_ACCEPT_LANGUAGE</td><td style="vertical-align:top;">:</td><td><div>en-US,en;q=0.8</div></td></tr><tr><td style="font-weight:bold;vertical-align:top;">HTTP_CACHE_CONTROL</td><td style="vertical-align:top;">:</td><td><div>max-age=0</div></td></tr><tr><td style="font-weight:bold;vertical-align:top;">HTTP_CONNECTION</td><td style="vertical-align:top;">:</td><td><div>keep-alive</div></td></tr><tr><td style="font-weight:bold;vertical-align:top;">HTTP_COOKIE</td><td style="vertical-align:top;">:</td><td><div>session_id_welcome=127.0.0.1-50835afe-bcfe-4c57-ace5-f1cb8ec865c3; session_id_admin=127.0.0.1-5769ca20-5c94-4a94-9164-c993927a42b9; session_id_scrumlite=127.0.0.1-14170de5-4226-432a-8022-79d817b0dea1</div></td></tr><tr><td style="font-weight:bold;vertical-align:top;">HTTP_HOST</td><td style="vertical-align:top;">:</td><td><div>127.0.0.1:8000</div></td></tr><tr><td style="font-weight:bold;vertical-align:top;">HTTP_UPGRADE_INSECURE_REQUESTS</td><td style="vertical-align:top;">:</td><td><div>1</div></td></tr><tr><td style="font-weight:bold;vertical-align:top;">HTTP_USER_AGENT</td><td style="vertical-align:top;">:</td><td><div>Mozilla/5.0 (X11; Linux x86_64) AppleWebKit/537.36 (KHTML, like Gecko) Chrome/48.0.2564.82 Safari/537.36</div></td></tr><tr><td style="font-weight:bold;vertical-align:top;">PATH_INFO</td><td style="vertical-align:top;">:</td><td><div>/scrumlite</div></td></tr><tr><td style="font-weight:bold;vertical-align:top;">QUERY_STRING</td><td style="vertical-align:top;">:</td><td><div></div></td></tr><tr><td style="font-weight:bold;vertical-align:top;">REMOTE_ADDR</td><td style="vertical-align:top;">:</td><td><div>127.0.0.1</div></td></tr><tr><td style="font-weight:bold;vertical-align:top;">REMOTE_PORT</td><td style="vertical-align:top;">:</td><td><div>36388</div></td></tr><tr><td style="font-weight:bold;vertical-align:top;">REQUEST_METHOD</td><td style="vertical-align:top;">:</td><td><div>GET</div></td></tr><tr><td style="font-weight:bold;vertical-align:top;">SCRIPT_NAME</td><td style="vertical-align:top;">:</td><td><div></div></td></tr><tr><td style="font-weight:bold;vertical-align:top;">SERVER_NAME</td><td style="vertical-align:top;">:</td><td><div>manmeet--E550</div></td></tr><tr><td style="font-weight:bold;vertical-align:top;">SERVER_PORT</td><td style="vertical-align:top;">:</td><td><div>8000</div></td></tr><tr><td style="font-weight:bold;vertical-align:top;">SERVER_PROTOCOL</td><td style="vertical-align:top;">:</td><td><div>HTTP/1.1</div></td></tr><tr><td style="font-weight:bold;vertical-align:top;">SERVER_SOFTWARE</td><td style="vertical-align:top;">:</td><td><div>Rocket 1.2.6</div></td></tr><tr><td style="font-weight:bold;vertical-align:top;">app_folders</td><td style="vertical-align:top;">:</td><td><div>set([&#x27;/home/manmeet/web2py/applications/welcome/&#x27;, &#x27;/home/manmeet/web2py/applications/scrumlite/&#x27;, &#x27;/home/manmeet/web2py/applications/admin/&#x27;])</div></td></tr><tr><td style="font-weight:bold;vertical-align:top;">applications_parent</td><td style="vertical-align:top;">:</td><td><div>/home/manmeet/web2py</div></td></tr><tr><td style="font-weight:bold;vertical-align:top;">cmd_args</td><td style="vertical-align:top;">:</td><td><div><table></table></div></td></tr><tr><td style="font-weight:bold;vertical-align:top;">cmd_options</td><td style="vertical-align:top;">:</td><td><div>&lt;Values at 0x7f75781769e0: {&#x27;verbose&#x27;: False, &#x27;ip&#x27;: &#x27;127.0.0.1&#x27;, &#x27;debuglevel&#x27;: 30, &#x27;with_scheduler&#x27;: False, &#x27;ips&#x27;: [&#x27;127.0.1.1&#x27;], &#x27;shutdown_timeout&#x27;: 5, &#x27;taskbar&#x27;: False, &#x27;with_coverage&#x27;: False, &#x27;scheduler_groups&#x27;: None, &#x27;port&#x27;: 8000, &#x27;maxthreads&#x27;: None, &#x27;softcron&#x27;: False, &#x27;server_name&#x27;: &#x27;manmeet--E550&#x27;, &#x27;bpython&#x27;: False, &#x27;nogui&#x27;: False, &#x27;pid_filename&#x27;: &#x27;httpserver.pid&#x27;, &#x27;print_errors&#x27;: False, &#x27;extcron&#x27;: False, &#x27;runcron&#x27;: False, &#x27;run_system_tests&#x27;: False, &#x27;test&#x27;: None, &#x27;folder&#x27;: &#x27;/home/manmeet/web2py&#x27;, &#x27;config&#x27;: &#x27;&#x27;, &#x27;minthreads&#x27;: None, &#x27;shell&#x27;: None, &#x27;run&#x27;: &#x27;&#x27;, &#x27;log_filename&#x27;: &#x27;httpserver.log&#x27;, &#x27;profiler_dir&#x27;: None, &#x27;args&#x27;: [&#x27;&#x27;], &#x27;socket_timeout&#x27;: 5, &#x27;ssl_ca_certificate&#x27;: None, &#x27;scheduler&#x27;: None, &#x27;interfaces&#x27;: None, &#x27;ssl_private_key&#x27;: &#x27;&#x27;, &#x27;gae&#x27;: None, &#x27;password&#x27;: &#x27;&lt;ask&gt;&#x27;, &#x27;request_queue_size&#x27;: 5, &#x27;ssl_certificate&#x27;: &#x27;&#x27;, &#x27;cronjob&#x27;: False, &#x27;numthreads&#x27;: None, &#x27;quiet&#x27;: False, &#x27;import_models&#x27;: False, &#x27;timeout&#x27;: 10, &#x27;plain&#x27;: False, &#x27;nobanner&#x27;: False}&gt;</div></td></tr><tr><td style="font-weight:bold;vertical-align:top;">db_sessions</td><td style="vertical-align:top;">:</td><td><div>set([])</div></td></tr><tr><td style="font-weight:bold;vertical-align:top;">debugging</td><td style="vertical-align:top;">:</td><td><div>False</div></td></tr><tr><td style="font-weight:bold;vertical-align:top;">gluon_parent</td><td style="vertical-align:top;">:</td><td><div>/home/manmeet/web2py</div></td></tr><tr><td style="font-weight:bold;vertical-align:top;">http_accept</td><td style="vertical-align:top;">:</td><td><div>text/html,application/xhtml+xml,application/xml;q=0.9,image/webp,*/*;q=0.8</div></td></tr><tr><td style="font-weight:bold;vertical-align:top;">http_accept_encoding</td><td style="vertical-align:top;">:</td><td><div>gzip, deflate, sdch</div></td></tr><tr><td style="font-weight:bold;vertical-align:top;">http_accept_language</td><td style="vertical-align:top;">:</td><td><div>en-US,en;q=0.8</div></td></tr><tr><td style="font-weight:bold;vertical-align:top;">http_cache_control</td><td style="vertical-align:top;">:</td><td><div>max-age=0</div></td></tr><tr><td style="font-weight:bold;vertical-align:top;">http_connection</td><td style="vertical-align:top;">:</td><td><div>keep-alive</div></td></tr><tr><td style="font-weight:bold;vertical-align:top;">http_cookie</td><td style="vertical-align:top;">:</td><td><div>session_id_welcome=127.0.0.1-50835afe-bcfe-4c57-ace5-f1cb8ec865c3; session_id_admin=127.0.0.1-5769ca20-5c94-4a94-9164-c993927a42b9; session_id_scrumlite=127.0.0.1-14170de5-4226-432a-8022-79d817b0dea1</div></td></tr><tr><td style="font-weight:bold;vertical-align:top;">http_host</td><td style="vertical-align:top;">:</td><td><div>127.0.0.1:8000</div></td></tr><tr><td style="font-weight:bold;vertical-align:top;">http_upgrade_insecure_requests</td><td style="vertical-align:top;">:</td><td><div>1</div></td></tr><tr><td style="font-weight:bold;vertical-align:top;">http_user_agent</td><td style="vertical-align:top;">:</td><td><div>Mozilla/5.0 (X11; Linux x86_64) AppleWebKit/537.36 (KHTML, like Gecko) Chrome/48.0.2564.82 Safari/537.36</div></td></tr><tr><td style="font-weight:bold;vertical-align:top;">is_jython</td><td style="vertical-align:top;">:</td><td><div>False</div></td></tr><tr><td style="font-weight:bold;vertical-align:top;">is_pypy</td><td style="vertical-align:top;">:</td><td><div>False</div></td></tr><tr><td style="font-weight:bold;vertical-align:top;">is_source</td><td style="vertical-align:top;">:</td><td><div>True</div></td></tr><tr><td style="font-weight:bold;vertical-align:top;">local_hosts</td><td style="vertical-align:top;">:</td><td><div><table><tr><td><div>127.0.1.1</div></td></tr><tr><td><div>::1</div></td></tr><tr><td><div>manmeet--E550</div></td></tr><tr><td><div>::ffff:127.0.0.1</div></td></tr><tr><td><div>127.0.0.1</div></td></tr></table></div></td></tr><tr><td style="font-weight:bold;vertical-align:top;">path_info</td><td style="vertical-align:top;">:</td><td><div>/scrumlite</div></td></tr><tr><td style="font-weight:bold;vertical-align:top;">query_string</td><td style="vertical-align:top;">:</td><td><div></div></td></tr><tr><td style="font-weight:bold;vertical-align:top;">remote_addr</td><td style="vertical-align:top;">:</td><td><div>127.0.0.1</div></td></tr><tr><td style="font-weight:bold;vertical-align:top;">remote_port</td><td style="vertical-align:top;">:</td><td><div>36388</div></td></tr><tr><td style="font-weight:bold;vertical-align:top;">request_method</td><td style="vertical-align:top;">:</td><td><div>GET</div></td></tr><tr><td style="font-weight:bold;vertical-align:top;">request_uri</td><td style="vertical-align:top;">:</td><td><div>/scrumlite</div></td></tr><tr><td style="font-weight:bold;vertical-align:top;">script_name</td><td style="vertical-align:top;">:</td><td><div></div></td></tr><tr><td style="font-weight:bold;vertical-align:top;">server_name</td><td style="vertical-align:top;">:</td><td><div>manmeet--E550</div></td></tr><tr><td style="font-weight:bold;vertical-align:top;">server_port</td><td style="vertical-align:top;">:</td><td><div>8000</div></td></tr><tr><td style="font-weight:bold;vertical-align:top;">server_protocol</td><td style="vertical-align:top;">:</td><td><div>HTTP/1.1</div></td></tr><tr><td style="font-weight:bold;vertical-align:top;">server_software</td><td style="vertical-align:top;">:</td><td><div>Rocket 1.2.6</div></td></tr><tr><td style="font-weight:bold;vertical-align:top;">web2py_path</td><td style="vertical-align:top;">:</td><td><div>/home/manmeet/web2py</div></td></tr><tr><td style="font-weight:bold;vertical-align:top;">web2py_version</td><td style="vertical-align:top;">:</td><td><div>2.13.4-stable+timestamp.2015.12.26.04.59.39</div></td></tr><tr><td style="font-weight:bold;vertical-align:top;">wsgi.errors</td><td style="vertical-align:top;">:</td><td><div>&lt;open file &#x27;&lt;stderr&gt;&#x27;, mode &#x27;w&#x27; at 0x7f757d53d1e0&gt;</div></td></tr><tr><td style="font-weight:bold;vertical-align:top;">wsgi.file_wrapper</td><td style="vertical-align:top;">:</td><td><div>&lt;class wsgiref.util.FileWrapper at 0x7f75785776d0&gt;</div></td></tr><tr><td style="font-weight:bold;vertical-align:top;">wsgi.input</td><td style="vertical-align:top;">:</td><td><div>&lt;socket._fileobject object at 0x7f75700b3cd0&gt;</div></td></tr><tr><td style="font-weight:bold;vertical-align:top;">wsgi.multiprocess</td><td style="vertical-align:top;">:</td><td><div>False</div></td></tr><tr><td style="font-weight:bold;vertical-align:top;">wsgi.multithread</td><td style="vertical-align:top;">:</td><td><div>True</div></td></tr><tr><td style="font-weight:bold;vertical-align:top;">wsgi.run_once</td><td style="vertical-align:top;">:</td><td><div>False</div></td></tr><tr><td style="font-weight:bold;vertical-align:top;">wsgi.url_scheme</td><td style="vertical-align:top;">:</td><td><div>http</div></td></tr><tr><td style="font-weight:bold;vertical-align:top;">wsgi.version</td><td style="vertical-align:top;">:</td><td><div><table><tr><td><div>1</div></td></tr><tr><td><div>0</div></td></tr></table></div></td></tr><tr><td style="font-weight:bold;vertical-align:top;">wsgi_errors</td><td style="vertical-align:top;">:</td><td><div>&lt;open file &#x27;&lt;stderr&gt;&#x27;, mode &#x27;w&#x27; at 0x7f757d53d1e0&gt;</div></td></tr><tr><td style="font-weight:bold;vertical-align:top;">wsgi_file_wrapper</td><td style="vertical-align:top;">:</td><td><div>&lt;class wsgiref.util.FileWrapper at 0x7f75785776d0&gt;</div></td></tr><tr><td style="font-weight:bold;vertical-align:top;">wsgi_input</td><td style="vertical-align:top;">:</td><td><div>&lt;socket._fileobject object at 0x7f75700b3cd0&gt;</div></td></tr><tr><td style="font-weight:bold;vertical-align:top;">wsgi_multiprocess</td><td style="vertical-align:top;">:</td><td><div>False</div></td></tr><tr><td style="font-weight:bold;vertical-align:top;">wsgi_multithread</td><td style="vertical-align:top;">:</td><td><div>True</div></td></tr><tr><td style="font-weight:bold;vertical-align:top;">wsgi_run_once</td><td style="vertical-align:top;">:</td><td><div>False</div></td></tr><tr><td style="font-weight:bold;vertical-align:top;">wsgi_url_scheme</td><td style="vertical-align:top;">:</td><td><div>http</div></td></tr><tr><td style="font-weight:bold;vertical-align:top;">wsgi_version</td><td style="vertical-align:top;">:</td><td><div><table><tr><td><div>1</div></td></tr><tr><td><div>0</div></td></tr></table></div></td></tr></table></div></td></tr><tr><td style="font-weight:bold;vertical-align:top;">extension</td><td style="vertical-align:top;">:</td><td><div>html</div></td></tr><tr><td style="font-weight:bold;vertical-align:top;">folder</td><td style="vertical-align:top;">:</td><td><div>/home/manmeet/web2py/applications/scrumlite/</div></td></tr><tr><td style="font-weight:bold;vertical-align:top;">function</td><td style="vertical-align:top;">:</td><td><div>index</div></td></tr><tr><td style="font-weight:bold;vertical-align:top;">global_settings</td><td style="vertical-align:top;">:</td><td><div><table><tr><td style="font-weight:bold;vertical-align:top;">app_folders</td><td style="vertical-align:top;">:</td><td><div>set([&#x27;/home/manmeet/web2py/applications/welcome/&#x27;, &#x27;/home/manmeet/web2py/applications/scrumlite/&#x27;, &#x27;/home/manmeet/web2py/applications/admin/&#x27;])</div></td></tr><tr><td style="font-weight:bold;vertical-align:top;">applications_parent</td><td style="vertical-align:top;">:</td><td><div>/home/manmeet/web2py</div></td></tr><tr><td style="font-weight:bold;vertical-align:top;">cmd_args</td><td style="vertical-align:top;">:</td><td><div><table></table></div></td></tr><tr><td style="font-weight:bold;vertical-align:top;">cmd_options</td><td style="vertical-align:top;">:</td><td><div>&lt;Values at 0x7f75781769e0: {&#x27;verbose&#x27;: False, &#x27;ip&#x27;: &#x27;127.0.0.1&#x27;, &#x27;debuglevel&#x27;: 30, &#x27;with_scheduler&#x27;: False, &#x27;ips&#x27;: [&#x27;127.0.1.1&#x27;], &#x27;shutdown_timeout&#x27;: 5, &#x27;taskbar&#x27;: False, &#x27;with_coverage&#x27;: False, &#x27;scheduler_groups&#x27;: None, &#x27;port&#x27;: 8000, &#x27;maxthreads&#x27;: None, &#x27;softcron&#x27;: False, &#x27;server_name&#x27;: &#x27;manmeet--E550&#x27;, &#x27;bpython&#x27;: False, &#x27;nogui&#x27;: False, &#x27;pid_filename&#x27;: &#x27;httpserver.pid&#x27;, &#x27;print_errors&#x27;: False, &#x27;extcron&#x27;: False, &#x27;runcron&#x27;: False, &#x27;run_system_tests&#x27;: False, &#x27;test&#x27;: None, &#x27;folder&#x27;: &#x27;/home/manmeet/web2py&#x27;, &#x27;config&#x27;: &#x27;&#x27;, &#x27;minthreads&#x27;: None, &#x27;shell&#x27;: None, &#x27;run&#x27;: &#x27;&#x27;, &#x27;log_filename&#x27;: &#x27;httpserver.log&#x27;, &#x27;profiler_dir&#x27;: None, &#x27;args&#x27;: [&#x27;&#x27;], &#x27;socket_timeout&#x27;: 5, &#x27;ssl_ca_certificate&#x27;: None, &#x27;scheduler&#x27;: None, &#x27;interfaces&#x27;: None, &#x27;ssl_private_key&#x27;: &#x27;&#x27;, &#x27;gae&#x27;: None, &#x27;password&#x27;: &#x27;&lt;ask&gt;&#x27;, &#x27;request_queue_size&#x27;: 5, &#x27;ssl_certificate&#x27;: &#x27;&#x27;, &#x27;cronjob&#x27;: False, &#x27;numthreads&#x27;: None, &#x27;quiet&#x27;: False, &#x27;import_models&#x27;: False, &#x27;timeout&#x27;: 10, &#x27;plain&#x27;: False, &#x27;nobanner&#x27;: False}&gt;</div></td></tr><tr><td style="font-weight:bold;vertical-align:top;">db_sessions</td><td style="vertical-align:top;">:</td><td><div>set([])</div></td></tr><tr><td style="font-weight:bold;vertical-align:top;">debugging</td><td style="vertical-align:top;">:</td><td><div>False</div></td></tr><tr><td style="font-weight:bold;vertical-align:top;">gluon_parent</td><td style="vertical-align:top;">:</td><td><div>/home/manmeet/web2py</div></td></tr><tr><td style="font-weight:bold;vertical-align:top;">is_jython</td><td style="vertical-align:top;">:</td><td><div>False</div></td></tr><tr><td style="font-weight:bold;vertical-align:top;">is_pypy</td><td style="vertical-align:top;">:</td><td><div>False</div></td></tr><tr><td style="font-weight:bold;vertical-align:top;">is_source</td><td style="vertical-align:top;">:</td><td><div>True</div></td></tr><tr><td style="font-weight:bold;vertical-align:top;">local_hosts</td><td style="vertical-align:top;">:</td><td><div><table><tr><td><div>127.0.1.1</div></td></tr><tr><td><div>::1</div></td></tr><tr><td><div>manmeet--E550</div></td></tr><tr><td><div>::ffff:127.0.0.1</div></td></tr><tr><td><div>127.0.0.1</div></td></tr></table></div></td></tr><tr><td style="font-weight:bold;vertical-align:top;">web2py_version</td><td style="vertical-align:top;">:</td><td><div>2.13.4-stable+timestamp.2015.12.26.04.59.39</div></td></tr></table></div></td></tr><tr><td style="font-weight:bold;vertical-align:top;">is_https</td><td style="vertical-align:top;">:</td><td><div>False</div></td></tr><tr><td style="font-weight:bold;vertical-align:top;">is_local</td><td style="vertical-align:top;">:</td><td><div>True</div></td></tr><tr><td style="font-weight:bold;vertical-align:top;">is_restful</td><td style="vertical-align:top;">:</td><td><div>False</div></td></tr><tr><td style="font-weight:bold;vertical-align:top;">is_scheduler</td><td style="vertical-align:top;">:</td><td><div>False</div></td></tr><tr><td style="font-weight:bold;vertical-align:top;">is_shell</td><td style="vertical-align:top;">:</td><td><div>False</div></td></tr><tr><td style="font-weight:bold;vertical-align:top;">now</td><td style="vertical-align:top;">:</td><td><div>datetime.datetime(2016, 1, 27, 12, 15, 45, 318098)</div></td></tr><tr><td style="font-weight:bold;vertical-align:top;">raw_args</td><td style="vertical-align:top;">:</td><td><div></div></td></tr><tr><td style="font-weight:bold;vertical-align:top;">raw_extension</td><td style="vertical-align:top;">:</td><td><div>None</div></td></tr><tr><td style="font-weight:bold;vertical-align:top;">url</td><td style="vertical-align:top;">:</td><td><div>/scrumlite</div></td></tr><tr><td style="font-weight:bold;vertical-align:top;">utcnow</td><td style="vertical-align:top;">:</td><td><div>datetime.datetime(2016, 1, 27, 20, 15, 45, 318113)</div></td></tr><tr><td style="font-weight:bold;vertical-align:top;">wsgi</td><td style="vertical-align:top;">:</td><td><div>&lt;gluon.main.LazyWSGI object at 0x7f755169bd10&gt;</div></td></tr></table></div>'
tRp58
sS'frames'
p59
(lp60
(dp61
S'file'
p62
S'/home/manmeet/web2py/gluon/restricted.py'
p63
sS'dump'
p64
(dp65
S'environment'
p66
S"{'A': <class 'gluon.html.A'>, 'ANY_OF': <class 'gluon.validators.ANY_OF'>, 'ASSIGNJS': <function ASSIGNJS>, 'AppConfig': <function AppConfig>, 'Auth': <class 'gluon.tools.Auth'>, 'B': <class 'gluon.html.B'>, 'BEAUTIFY': <class 'gluon.html.BEAUTIFY'>, 'BODY': <class 'gluon.html.BODY'>, 'BR': <class 'gluon.html.BR'>, 'BUTTON': <class 'gluon.html.BUTTON'>, ...}"
p67
sS'ccode'
p68
S'<code object <module> at 0x7f75700bef30, file "/...ions/scrumlite/views/default/index.html", line 1>'
p69
ssS'lnum'
p70
I227
sS'lines'
p71
(dp72
I224
S'            ccode = code'
p73
sI225
S'        else:'
p74
sI226
S'            ccode = compile2(code, layer)'
p75
sI227
S'        exec ccode in environment'
p76
sI228
S'    except HTTP:'
p77
sI229
S'        raise'
p78
sI230
S'    except RestrictedError:'
p79
sI231
S'        # do not encapsulate (obfuscate) the original RestrictedError'
p80
sI222
S'    try:'
p81
sI223
S'        if isinstance(code, types.CodeType):'
p82
ssS'call'
p83
S'(code=r"left_sidebar_enabled,right_sidebar_enabled=False...t\\t</div>\\n\\n\\t</body>\\n</html>\\n\', escape=False)", environment={\'A\': <class \'gluon.html.A\'>, \'ANY_OF\': <class \'gluon.validators.ANY_OF\'>, \'ASSIGNJS\': <function ASSIGNJS>, \'AppConfig\': <function AppConfig>, \'Auth\': <class \'gluon.tools.Auth\'>, \'B\': <class \'gluon.html.B\'>, \'BEAUTIFY\': <class \'gluon.html.BEAUTIFY\'>, \'BODY\': <class \'gluon.html.BODY\'>, \'BR\': <class \'gluon.html.BR\'>, \'BUTTON\': <class \'gluon.html.BUTTON\'>, ...}, layer=\'/home/manmeet/web2py/applications/scrumlite/views/default/index.html\')'
p84
sS'func'
p85
S'restricted'
p86
sa(dp87
g62
S'/home/manmeet/web2py/applications/scrumlite/views/default/index.html'
p88
sg64
(dp89
S'html'
p90
S'undefined'
p91
ssg70
I22
sg71
(dp92
I13
S'response.write("\'\\n    //--></script>\\n", escape=False)'
p93
sI14
S"response.files.insert(0,URL('static','js/jquery.js'))"
p94
sI15
S"response.files.insert(1,URL('static','css/calendar.css'))"
p95
sI16
S"response.files.insert(2,URL('static','js/calendar.js'))"
p96
sI17
S"response.files.insert(3,URL('static','js/web2py.js'))"
p97
sI18
S'response.include_meta()'
p98
sI19
S'response.include_files()'
p99
sI20
S"response.write('\\n', escape=False)"
p100
sI21
S"response.write('\\n', escape=False)"
p101
sI22
S"response.files.append(0, URL('static','js/jquery.min.js'))"
p102
sI23
S"response.files.append(URL('static','js/jquery.dropotron.min.js'))"
p103
sI24
S"response.files.append(URL('static','js/skel-layers.min.js'))"
p104
sI25
S"response.files.append(URL('static','js/init.js'))"
p105
sI26
S"response.files.append(URL('static','css/style.css'))"
p106
sI27
S"response.files.append(URL('static','css/skel.css'))"
p107
sI28
S"response.files.append(URL('static','images/pic02.jpg'))"
p108
sI29
S"response.files.append(URL('static','images/pic03.jpg'))"
p109
sI30
S"response.files.append(URL('static','images/pic04.jpg'))"
p110
sI31
S'response.write(\'\\n\\n<!DOCTYPE HTML>\\n<!--\\n\\tHorizons by TEMPLATED\\n\\ttemplated.co @templatedco\\n\\tReleased for free under the Creative Commons Attribution 3.0 license (templated.co/license)\\n-->\\n\\n<html>\\n\\t<head>\\n\\t\\t<title>Horizons by TEMPLATED</title>\\n\\t\\t<meta http-equiv="content-type" content="text/html; charset=utf-8" />\\n\\t\\t<meta name="description" content="" />\\n\\t\\t<meta name="keywords" content="" />\\n\\t\\t<!--[if lte IE 8]><script src="css/ie/html5shiv.js"></script><![endif]-->\\n\\t\\t<script src="js/jquery.min.js"></script>\\n\\t\\t<script src="jquery.dropotron.min.js"></script>\\n\\t\\t<script src="skel.min.js"></script>\\n\\t\\t<script src="skel-layers.min.js"></script>\\n\\t\\t<script src="init.js"></script>\\n\\t\\t<noscript>\\n\\t\\t\\t<link rel="stylesheet" href="css/skel.css" />\\n\\t\\t\\t<link rel="stylesheet" href="css/style.css" />\\n\\t\\t</noscript>\\n\\t\\t<!--[if lte IE 8]><link rel="stylesheet" href="css/ie/v8.css" /><![endif]-->\\n\\t</head>\\n\\t<body class="homepage">\\n\\n\\t\\t<!-- Header -->\\n\\t\\t\\t<div id="header">\\n\\t\\t\\t\\t<div class="container">\\n\\n\\t\\t\\t\\t\\t<!-- Logo -->\\n\\t\\t\\t\\t\\t\\t<h1><a href="#" id="logo">Horizons</a></h1>\\n\\n\\t\\t\\t\\t\\t<!-- Nav -->\\n\\t\\t\\t\\t\\t\\t<nav id="nav">\\n\\t\\t\\t\\t\\t\\t\\t<ul>\\n\\t\\t\\t\\t\\t\\t\\t\\t<li><a href="index.html">Home</a></li>\\n\\t\\t\\t\\t\\t\\t\\t\\t<li>\\n\\t\\t\\t\\t\\t\\t\\t\\t\\t<a href="">Dropdown</a>\\n\\t\\t\\t\\t\\t\\t\\t\\t\\t<ul>\\n\\t\\t\\t\\t\\t\\t\\t\\t\\t\\t<li><a href="#">Lorem ipsum dolor</a></li>\\n\\t\\t\\t\\t\\t\\t\\t\\t\\t\\t<li><a href="#">Magna phasellus</a></li>\\n\\t\\t\\t\\t\\t\\t\\t\\t\\t\\t<li><a href="#">Etiam dolore nisl</a></li>\\n\\t\\t\\t\\t\\t\\t\\t\\t\\t\\t<li>\\n\\t\\t\\t\\t\\t\\t\\t\\t\\t\\t\\t<a href="">Phasellus consequat</a>\\n\\t\\t\\t\\t\\t\\t\\t\\t\\t\\t\\t<ul>\\n\\t\\t\\t\\t\\t\\t\\t\\t\\t\\t\\t\\t<li><a href="#">Lorem ipsum dolor</a></li>\\n\\t\\t\\t\\t\\t\\t\\t\\t\\t\\t\\t\\t<li><a href="#">Phasellus consequat</a></li>\\n\\t\\t\\t\\t\\t\\t\\t\\t\\t\\t\\t\\t<li><a href="#">Magna phasellus</a></li>\\n\\t\\t\\t\\t\\t\\t\\t\\t\\t\\t\\t\\t<li><a href="#">Etiam dolore nisl</a></li>\\n\\t\\t\\t\\t\\t\\t\\t\\t\\t\\t\\t\\t<li><a href="#">Veroeros feugiat</a></li>\\n\\t\\t\\t\\t\\t\\t\\t\\t\\t\\t\\t</ul>\\n\\t\\t\\t\\t\\t\\t\\t\\t\\t\\t</li>\\n\\t\\t\\t\\t\\t\\t\\t\\t\\t\\t<li><a href="#">Veroeros feugiat</a></li>\\n\\t\\t\\t\\t\\t\\t\\t\\t\\t</ul>\\n\\t\\t\\t\\t\\t\\t\\t\\t</li>\\n\\t\\t\\t\\t\\t\\t\\t\\t<li><a href="left-sidebar.html">Left Sidebar</a></li>\\n\\t\\t\\t\\t\\t\\t\\t\\t<li><a href="right-sidebar.html">Right Sidebar</a></li>\\n\\t\\t\\t\\t\\t\\t\\t\\t<li><a href="no-sidebar.html">No Sidebar</a></li>\\n\\t\\t\\t\\t\\t\\t\\t</ul>\\n\\t\\t\\t\\t\\t\\t</nav>\\n\\n\\n\\t\\t\\t\\t\\t<!-- Banner -->\\n\\t\\t\\t\\t\\t\\t<div id="banner">\\n\\t\\t\\t\\t\\t\\t\\t<div class="container">\\n\\t\\t\\t\\t\\t\\t\\t\\t<section>\\n\\t\\t\\t\\t\\t\\t\\t\\t\\t<header class="major">\\n\\t\\t\\t\\t\\t\\t\\t\\t\\t\\t<h2>Welcome to Horizons!</h2>\\n\\t\\t\\t\\t\\t\\t\\t\\t\\t\\t<span class="byline">&hellip; a responsive HTML5 site template freebie by <a href="http://templated.co">TEMPLATED</a>. Released for free under the <a href="http://templated.co/license">Creative Commons Attribution</a> license, so use it for whatever (personal or commercial) &ndash; just give us credit!</span>\\n\\t\\t\\t\\t\\t\\t\\t\\t\\t</header>\\n\\t\\t\\t\\t\\t\\t\\t\\t\\t<a href="#" class="button alt">Sign Up</a>\\n\\t\\t\\t\\t\\t\\t\\t\\t</section>\\n\\t\\t\\t\\t\\t\\t\\t</div>\\n\\t\\t\\t\\t\\t\\t</div>\\n\\n\\t\\t\\t\\t</div>\\n\\t\\t\\t</div>\\n\\n\\t\\t<!-- Featured -->\\n\\t\\t\\t<div class="wrapper style2">\\n\\t\\t\\t\\t<section class="container">\\n\\t\\t\\t\\t\\t<header class="major">\\n\\t\\t\\t\\t\\t\\t<h2>Nulla luctus eleifend</h2>\\n\\t\\t\\t\\t\\t\\t<span class="byline">Mauris vulputate dolor sit amet nibh</span>\\n\\t\\t\\t\\t\\t</header>\\n\\t\\t\\t\\t\\t<div class="row no-collapse-1">\\n\\t\\t\\t\\t\\t\\t<section class="4u">\\n\\t\\t\\t\\t\\t\\t\\t<a href="#" class="image feature"><img src="images/pic02.jpg" alt=""></a>\\n\\t\\t\\t\\t\\t\\t\\t<p>Nam in massa. Sed vel tellus. Curabitur sem urna, consequat vel, suscipit in, mattis placerat.</p>\\n\\t\\t\\t\\t\\t\\t</section>\\n\\t\\t\\t\\t\\t\\t<section class="4u">\\n\\t\\t\\t\\t\\t\\t\\t<a href="#" class="image feature"><img src="images/pic03.jpg" alt=""></a>\\n\\t\\t\\t\\t\\t\\t\\t<p>Donec ornare neque ac sem. Mauris aliquet. Aliquam sem leo, vulputate sed, convallis. Donec magna.</p>\\n\\t\\t\\t\\t\\t\\t</section>\\n\\t\\t\\t\\t\\t\\t<section class="4u">\\n\\t\\t\\t\\t\\t\\t\\t<a href="#" class="image feature"><img src="images/pic04.jpg" alt=""></a>\\n\\t\\t\\t\\t\\t\\t\\t<p>Curabitur sem urna, consequat vel, suscipit convallis sem leo, mattis placerat, nulla. Sed ac leo.</p>\\n\\t\\t\\t\\t\\t\\t</section>\\n\\n\\t\\t\\t\\t\\t</div>\\n\\t\\t\\t\\t</section>\\n\\t\\t\\t</div>\\n\\n\\t\\t<!-- Main -->\\n\\t\\t\\t<div id="main" class="wrapper style1">\\n\\t\\t\\t\\t<section class="container">\\n\\t\\t\\t\\t\\t<header class="major">\\n\\t\\t\\t\\t\\t\\t<h2>Nulla luctus eleifend</h2>\\n\\t\\t\\t\\t\\t\\t<span class="byline">Mauris vulputate dolor sit amet nibh</span>\\n\\t\\t\\t\\t\\t</header>\\n\\t\\t\\t\\t\\t<div class="row">\\n\\n\\t\\t\\t\\t\\t\\t<!-- Content -->\\n\\t\\t\\t\\t\\t\\t\\t<div class="6u">\\n\\t\\t\\t\\t\\t\\t\\t\\t<section>\\n\\t\\t\\t\\t\\t\\t\\t\\t\\t<ul class="style">\\n\\t\\t\\t\\t\\t\\t\\t\\t\\t\\t<li>\\n\\t\\t\\t\\t\\t\\t\\t\\t\\t\\t\\t<span class="fa fa-wrench"></span>\\n\\t\\t\\t\\t\\t\\t\\t\\t\\t\\t\\t<h3>Integer ultrices</h3>\\n\\t\\t\\t\\t\\t\\t\\t\\t\\t\\t\\t<span>In posuere eleifend odio. Quisque semper augue mattis wisi. Maecenas ligula. Pellentesque viverra vulputate enim.</span>\\n\\t\\t\\t\\t\\t\\t\\t\\t\\t\\t</li>\\n\\t\\t\\t\\t\\t\\t\\t\\t\\t\\t<li>\\n\\t\\t\\t\\t\\t\\t\\t\\t\\t\\t\\t<span class="fa fa-cloud"></span>\\n\\t\\t\\t\\t\\t\\t\\t\\t\\t\\t\\t<h3>Aliquam luctus</h3>\\n\\t\\t\\t\\t\\t\\t\\t\\t\\t\\t\\t<span>Pellentesque viverra vulputate enim. Aliquam erat volutpat. Maecenas condimentum enim tincidunt risus accumsan.</span>\\n\\t\\t\\t\\t\\t\\t\\t\\t\\t\\t</li>\\n\\t\\t\\t\\t\\t\\t\\t\\t\\t</ul>\\n\\t\\t\\t\\t\\t\\t\\t\\t</section>\\n\\t\\t\\t\\t\\t\\t\\t</div>\\n\\t\\t\\t\\t\\t\\t\\t<div class="6u">\\n\\t\\t\\t\\t\\t\\t\\t\\t<section>\\n\\t\\t\\t\\t\\t\\t\\t\\t\\t<ul class="style">\\n\\t\\t\\t\\t\\t\\t\\t\\t\\t\\t<li>\\n\\t\\t\\t\\t\\t\\t\\t\\t\\t\\t\\t<span class="fa fa-cogs"></span>\\n\\t\\t\\t\\t\\t\\t\\t\\t\\t\\t\\t<h3>Integer ultrices</h3>\\n\\t\\t\\t\\t\\t\\t\\t\\t\\t\\t\\t<span>In posuere eleifend odio. Quisque semper augue mattis wisi. Maecenas ligula. Pellentesque viverra vulputate enim.</span>\\n\\t\\t\\t\\t\\t\\t\\t\\t\\t\\t</li>\\n\\t\\t\\t\\t\\t\\t\\t\\t\\t\\t<li>\\n\\t\\t\\t\\t\\t\\t\\t\\t\\t\\t\\t<span class="fa fa-leaf"></span>\\n\\t\\t\\t\\t\\t\\t\\t\\t\\t\\t\\t<h3>Aliquam luctus</h3>\\n\\t\\t\\t\\t\\t\\t\\t\\t\\t\\t\\t<span>Pellentesque viverra vulputate enim. Aliquam erat volutpat. Maecenas condimentum enim tincidunt risus accumsan.</span>\\n\\t\\t\\t\\t\\t\\t\\t\\t\\t\\t</li>\\n\\t\\t\\t\\t\\t\\t\\t\\t\\t</ul>\\n\\t\\t\\t\\t\\t\\t\\t\\t</section>\\n\\t\\t\\t\\t\\t\\t\\t</div>\\n\\n\\t\\t\\t\\t\\t</div>\\n\\t\\t\\t\\t</section>\\n\\t\\t\\t</div>\\n\\n\\t\\t<!-- Footer -->\\n\\t\\t\\t<div id="footer">\\n\\t\\t\\t\\t<div class="container">\\n\\n\\t\\t\\t\\t\\t<!-- Lists -->\\n\\t\\t\\t\\t\\t\\t<div class="row">\\n\\t\\t\\t\\t\\t\\t\\t<div class="8u">\\n\\t\\t\\t\\t\\t\\t\\t\\t<section>\\n\\t\\t\\t\\t\\t\\t\\t\\t\\t<header class="major">\\n\\t\\t\\t\\t\\t\\t\\t\\t\\t\\t<h2>Donec dictum metus</h2>\\n\\t\\t\\t\\t\\t\\t\\t\\t\\t\\t<span class="byline">Quisque semper augue mattis wisi maecenas ligula</span>\\n\\t\\t\\t\\t\\t\\t\\t\\t\\t</header>\\n\\t\\t\\t\\t\\t\\t\\t\\t\\t<div class="row">\\n\\t\\t\\t\\t\\t\\t\\t\\t\\t\\t<section class="6u">\\n\\t\\t\\t\\t\\t\\t\\t\\t\\t\\t\\t<ul class="default">\\n\\t\\t\\t\\t\\t\\t\\t\\t\\t\\t\\t\\t<li><a href="#">Pellentesque elit non gravida blandit.</a></li>\\n\\t\\t\\t\\t\\t\\t\\t\\t\\t\\t\\t\\t<li><a href="#">Lorem ipsum dolor consectetuer elit.</a></li>\\n\\t\\t\\t\\t\\t\\t\\t\\t\\t\\t\\t\\t<li><a href="#">Phasellus nibh pellentesque congue.</a></li>\\n\\t\\t\\t\\t\\t\\t\\t\\t\\t\\t\\t\\t<li><a href="#">Cras vitae metus aliquam  pharetra.</a></li>\\n\\t\\t\\t\\t\\t\\t\\t\\t\\t\\t\\t</ul>\\n\\t\\t\\t\\t\\t\\t\\t\\t\\t\\t</section>\\n\\t\\t\\t\\t\\t\\t\\t\\t\\t\\t<section class="6u">\\n\\t\\t\\t\\t\\t\\t\\t\\t\\t\\t\\t<ul class="default">\\n\\t\\t\\t\\t\\t\\t\\t\\t\\t\\t\\t\\t<li><a href="#">Pellentesque elit non gravida blandit.</a></li>\\n\\t\\t\\t\\t\\t\\t\\t\\t\\t\\t\\t\\t<li><a href="#">Lorem ipsum dolor consectetuer elit.</a></li>\\n\\t\\t\\t\\t\\t\\t\\t\\t\\t\\t\\t\\t<li><a href="#">Phasellus nibh pellentesque congue.</a></li>\\n\\t\\t\\t\\t\\t\\t\\t\\t\\t\\t\\t\\t<li><a href="#">Cras vitae metus aliquam  pharetra.</a></li>\\n\\t\\t\\t\\t\\t\\t\\t\\t\\t\\t\\t</ul>\\n\\t\\t\\t\\t\\t\\t\\t\\t\\t\\t</section>\\n\\t\\t\\t\\t\\t\\t\\t\\t\\t</div>\\n\\t\\t\\t\\t\\t\\t\\t\\t</section>\\n\\t\\t\\t\\t\\t\\t\\t</div>\\n\\t\\t\\t\\t\\t\\t\\t<div class="4u">\\n\\t\\t\\t\\t\\t\\t\\t\\t<section>\\n\\t\\t\\t\\t\\t\\t\\t\\t\\t<header class="major">\\n\\t\\t\\t\\t\\t\\t\\t\\t\\t\\t<h2>Donec dictum metus</h2>\\n\\t\\t\\t\\t\\t\\t\\t\\t\\t\\t<span class="byline">Mattis wisi maecenas ligula</span>\\n\\t\\t\\t\\t\\t\\t\\t\\t\\t</header>\\n\\t\\t\\t\\t\\t\\t\\t\\t\\t<ul class="contact">\\n\\t\\t\\t\\t\\t\\t\\t\\t\\t\\t<li>\\n\\t\\t\\t\\t\\t\\t\\t\\t\\t\\t\\t<span class="address">Address</span>\\n\\t\\t\\t\\t\\t\\t\\t\\t\\t\\t\\t<span>1234 Somewhere Road #4285 <br />Nashville, TN 00000</span>\\n\\t\\t\\t\\t\\t\\t\\t\\t\\t\\t</li>\\n\\t\\t\\t\\t\\t\\t\\t\\t\\t\\t<li>\\n\\t\\t\\t\\t\\t\\t\\t\\t\\t\\t\\t<span class="mail">Mail</span>\\n\\t\\t\\t\\t\\t\\t\\t\\t\\t\\t\\t<span><a href="#">someone@untitled.tld</a></span>\\n\\t\\t\\t\\t\\t\\t\\t\\t\\t\\t</li>\\n\\t\\t\\t\\t\\t\\t\\t\\t\\t\\t<li>\\n\\t\\t\\t\\t\\t\\t\\t\\t\\t\\t\\t<span class="phone">Phone</span>\\n\\t\\t\\t\\t\\t\\t\\t\\t\\t\\t\\t<span>(000) 000-0000</span>\\n\\t\\t\\t\\t\\t\\t\\t\\t\\t\\t</li>\\n\\t\\t\\t\\t\\t\\t\\t\\t\\t</ul>\\n\\t\\t\\t\\t\\t\\t\\t\\t</section>\\n\\t\\t\\t\\t\\t\\t\\t</div>\\n\\t\\t\\t\\t\\t\\t</div>\\n\\n\\t\\t\\t\\t\\t<!-- Copyright -->\\n\\t\\t\\t\\t\\t\\t<div class="copyright">\\n\\t\\t\\t\\t\\t\\t\\tDesign: <a href="http://templated.co">TEMPLATED</a> Images: <a href="http://unsplash.com">Unsplash</a> (<a href="http://unsplash.com/cc0">CC0</a>)\\n\\t\\t\\t\\t\\t\\t</div>\\n\\n\\t\\t\\t\\t</div>\\n\\t\\t\\t</div>\\n\\n\\t</body>\\n</html>\\n\', escape=False)'
p111
ssg83
S'()'
p112
sg85
S'<module>'
p113
sasS'pyver'
p114
S'Python 2.7.10: /usr/bin/python (prefix: /usr)'
p115
sS'session'
p116
g57
(S's\x1a\x00\x00\x00<div><table></table></div>'
tRp117
sS'etype'
p118
S"<type 'exceptions.TypeError'>"
p119
sS'date'
p120
S'Wed Jan 27 12:15:45 2016'
p121
sS'response'
p122
g57
(S'sm?\x00\x00<div><table><tr><td style="font-weight:bold;vertical-align:top;">body</td><td style="vertical-align:top;">:</td><td><div>&lt;cStringIO.StringO object at 0x7f75511b9570&gt;</div></td></tr><tr><td style="font-weight:bold;vertical-align:top;">cookies</td><td style="vertical-align:top;">:</td><td><div><table><tr><td style="font-weight:bold;vertical-align:top;">session_id_scrumlite</td><td style="vertical-align:top;">:</td><td><div>127.0.0.1-7525a644-0131-4efd-8aa1-875089d2ee03<table><tr><td style="font-weight:bold;vertical-align:top;">comment</td><td style="vertical-align:top;">:</td><td><div></div></td></tr><tr><td style="font-weight:bold;vertical-align:top;">domain</td><td style="vertical-align:top;">:</td><td><div></div></td></tr><tr><td style="font-weight:bold;vertical-align:top;">expires</td><td style="vertical-align:top;">:</td><td><div></div></td></tr><tr><td style="font-weight:bold;vertical-align:top;">httponly</td><td style="vertical-align:top;">:</td><td><div></div></td></tr><tr><td style="font-weight:bold;vertical-align:top;">max-age</td><td style="vertical-align:top;">:</td><td><div></div></td></tr><tr><td style="font-weight:bold;vertical-align:top;">path</td><td style="vertical-align:top;">:</td><td><div>/</div></td></tr><tr><td style="font-weight:bold;vertical-align:top;">secure</td><td style="vertical-align:top;">:</td><td><div></div></td></tr><tr><td style="font-weight:bold;vertical-align:top;">version</td><td style="vertical-align:top;">:</td><td><div></div></td></tr></table></div></td></tr></table></div></td></tr><tr><td style="font-weight:bold;vertical-align:top;">delimiters</td><td style="vertical-align:top;">:</td><td><div><table><tr><td><div>{{</div></td></tr><tr><td><div>}}</div></td></tr></table></div></td></tr><tr><td style="font-weight:bold;vertical-align:top;">files</td><td style="vertical-align:top;">:</td><td><div><table><tr><td><div>/scrumlite/static/js/jquery.js</div></td></tr><tr><td><div>/scrumlite/static/css/calendar.css</div></td></tr><tr><td><div>/scrumlite/static/js/calendar.js</div></td></tr><tr><td><div>/scrumlite/static/js/web2py.js</div></td></tr></table></div></td></tr><tr><td style="font-weight:bold;vertical-align:top;">flash</td><td style="vertical-align:top;">:</td><td><div>Hello World</div></td></tr><tr><td style="font-weight:bold;vertical-align:top;">form_label_separator</td><td style="vertical-align:top;">:</td><td><div></div></td></tr><tr><td style="font-weight:bold;vertical-align:top;">formstyle</td><td style="vertical-align:top;">:</td><td><div>bootstrap3_inline</div></td></tr><tr><td style="font-weight:bold;vertical-align:top;">generic_patterns</td><td style="vertical-align:top;">:</td><td><div><table><tr><td><div>*</div></td></tr></table></div></td></tr><tr><td style="font-weight:bold;vertical-align:top;">google_analytics_id</td><td style="vertical-align:top;">:</td><td><div>None</div></td></tr><tr><td style="font-weight:bold;vertical-align:top;">headers</td><td style="vertical-align:top;">:</td><td><div><table><tr><td style="font-weight:bold;vertical-align:top;">X-Powered-By</td><td style="vertical-align:top;">:</td><td><div>web2py</div></td></tr></table></div></td></tr><tr><td style="font-weight:bold;vertical-align:top;">logo</td><td style="vertical-align:top;">:</td><td><div><a class="navbar-brand" href="http://www.web2py.com/" id="web2py-logo"><b>web<span>2</span>py</b>&trade;&nbsp;</a></div></td></tr><tr><td style="font-weight:bold;vertical-align:top;">menu</td><td style="vertical-align:top;">:</td><td><div><table><tr><td><div><table><tr><td><div>Home</div></td></tr><tr><td><div>False</div></td></tr><tr><td><div>/scrumlite/default/index</div></td></tr><tr><td><div><table></table></div></td></tr></table></div></td></tr><tr><td><div><table><tr><td><div>My Sites</div></td></tr><tr><td><div>False</div></td></tr><tr><td><div>/admin/default/site</div></td></tr></table></div></td></tr><tr><td><div><table><tr><td><div>This App</div></td></tr><tr><td><div>False</div></td></tr><tr><td><div>#</div></td></tr><tr><td><div><table><tr><td><div><table><tr><td><div>Design</div></td></tr><tr><td><div>False</div></td></tr><tr><td><div>/admin/default/design/scrumlite</div></td></tr></table></div></td></tr><tr><td><div><li class="divider"></li></div></td></tr><tr><td><div><table><tr><td><div>Controller</div></td></tr><tr><td><div>False</div></td></tr><tr><td><div>/admin/default/edit/scrumlite/controllers/default.py</div></td></tr></table></div></td></tr><tr><td><div><table><tr><td><div>View</div></td></tr><tr><td><div>False</div></td></tr><tr><td><div>/admin/default/edit/scrumlite/views/default/index.html</div></td></tr></table></div></td></tr><tr><td><div><table><tr><td><div>DB Model</div></td></tr><tr><td><div>False</div></td></tr><tr><td><div>/admin/default/edit/scrumlite/models/db.py</div></td></tr></table></div></td></tr><tr><td><div><table><tr><td><div>Menu Model</div></td></tr><tr><td><div>False</div></td></tr><tr><td><div>/admin/default/edit/scrumlite/models/menu.py</div></td></tr></table></div></td></tr><tr><td><div><table><tr><td><div>Config.ini</div></td></tr><tr><td><div>False</div></td></tr><tr><td><div>/admin/default/edit/scrumlite/private/appconfig.ini</div></td></tr></table></div></td></tr><tr><td><div><table><tr><td><div>Layout</div></td></tr><tr><td><div>False</div></td></tr><tr><td><div>/admin/default/edit/scrumlite/views/layout.html</div></td></tr></table></div></td></tr><tr><td><div><table><tr><td><div>Stylesheet</div></td></tr><tr><td><div>False</div></td></tr><tr><td><div>/admin/default/edit/scrumlite/static/css/web2py-bootstrap3.css</div></td></tr></table></div></td></tr><tr><td><div><table><tr><td><div>Database</div></td></tr><tr><td><div>False</div></td></tr><tr><td><div>/scrumlite/appadmin/index</div></td></tr></table></div></td></tr><tr><td><div><table><tr><td><div>Errors</div></td></tr><tr><td><div>False</div></td></tr><tr><td><div>/admin/default/errors/scrumlite</div></td></tr></table></div></td></tr><tr><td><div><table><tr><td><div>About</div></td></tr><tr><td><div>False</div></td></tr><tr><td><div>/admin/default/about/scrumlite</div></td></tr></table></div></td></tr></table></div></td></tr></table></div></td></tr><tr><td><div><table><tr><td><div>web2py.com</div></td></tr><tr><td><div>False</div></td></tr><tr><td><div>#</div></td></tr><tr><td><div><table><tr><td><div><table><tr><td><div>Download</div></td></tr><tr><td><div>False</div></td></tr><tr><td><div>http://www.web2py.com/examples/default/download</div></td></tr></table></div></td></tr><tr><td><div><table><tr><td><div>Support</div></td></tr><tr><td><div>False</div></td></tr><tr><td><div>http://www.web2py.com/examples/default/support</div></td></tr></table></div></td></tr><tr><td><div><table><tr><td><div>Demo</div></td></tr><tr><td><div>False</div></td></tr><tr><td><div>http://web2py.com/demo_admin</div></td></tr></table></div></td></tr><tr><td><div><table><tr><td><div>Quick Examples</div></td></tr><tr><td><div>False</div></td></tr><tr><td><div>http://web2py.com/examples/default/examples</div></td></tr></table></div></td></tr><tr><td><div><table><tr><td><div>FAQ</div></td></tr><tr><td><div>False</div></td></tr><tr><td><div>http://web2py.com/AlterEgo</div></td></tr></table></div></td></tr><tr><td><div><table><tr><td><div>Videos</div></td></tr><tr><td><div>False</div></td></tr><tr><td><div>http://www.web2py.com/examples/default/videos/</div></td></tr></table></div></td></tr><tr><td><div><table><tr><td><div>Free Applications</div></td></tr><tr><td><div>False</div></td></tr><tr><td><div>http://web2py.com/appliances</div></td></tr></table></div></td></tr><tr><td><div><table><tr><td><div>Plugins</div></td></tr><tr><td><div>False</div></td></tr><tr><td><div>http://web2py.com/plugins</div></td></tr></table></div></td></tr><tr><td><div><table><tr><td><div>Recipes</div></td></tr><tr><td><div>False</div></td></tr><tr><td><div>http://web2pyslices.com/</div></td></tr></table></div></td></tr></table></div></td></tr></table></div></td></tr><tr><td><div><table><tr><td><div>Documentation</div></td></tr><tr><td><div>False</div></td></tr><tr><td><div>#</div></td></tr><tr><td><div><table><tr><td><div><table><tr><td><div>Online book</div></td></tr><tr><td><div>False</div></td></tr><tr><td><div>http://www.web2py.com/book</div></td></tr></table></div></td></tr><tr><td><div><li class="divider"></li></div></td></tr><tr><td><div><table><tr><td><div>Preface</div></td></tr><tr><td><div>False</div></td></tr><tr><td><div>http://www.web2py.com/book/default/chapter/00</div></td></tr></table></div></td></tr><tr><td><div><table><tr><td><div>Introduction</div></td></tr><tr><td><div>False</div></td></tr><tr><td><div>http://www.web2py.com/book/default/chapter/01</div></td></tr></table></div></td></tr><tr><td><div><table><tr><td><div>Python</div></td></tr><tr><td><div>False</div></td></tr><tr><td><div>http://www.web2py.com/book/default/chapter/02</div></td></tr></table></div></td></tr><tr><td><div><table><tr><td><div>Overview</div></td></tr><tr><td><div>False</div></td></tr><tr><td><div>http://www.web2py.com/book/default/chapter/03</div></td></tr></table></div></td></tr><tr><td><div><table><tr><td><div>The Core</div></td></tr><tr><td><div>False</div></td></tr><tr><td><div>http://www.web2py.com/book/default/chapter/04</div></td></tr></table></div></td></tr><tr><td><div><table><tr><td><div>The Views</div></td></tr><tr><td><div>False</div></td></tr><tr><td><div>http://www.web2py.com/book/default/chapter/05</div></td></tr></table></div></td></tr><tr><td><div><table><tr><td><div>Database</div></td></tr><tr><td><div>False</div></td></tr><tr><td><div>http://www.web2py.com/book/default/chapter/06</div></td></tr></table></div></td></tr><tr><td><div><table><tr><td><div>Forms and Validators</div></td></tr><tr><td><div>False</div></td></tr><tr><td><div>http://www.web2py.com/book/default/chapter/07</div></td></tr></table></div></td></tr><tr><td><div><table><tr><td><div>Email and SMS</div></td></tr><tr><td><div>False</div></td></tr><tr><td><div>http://www.web2py.com/book/default/chapter/08</div></td></tr></table></div></td></tr><tr><td><div><table><tr><td><div>Access Control</div></td></tr><tr><td><div>False</div></td></tr><tr><td><div>http://www.web2py.com/book/default/chapter/09</div></td></tr></table></div></td></tr><tr><td><div><table><tr><td><div>Services</div></td></tr><tr><td><div>False</div></td></tr><tr><td><div>http://www.web2py.com/book/default/chapter/10</div></td></tr></table></div></td></tr><tr><td><div><table><tr><td><div>Ajax Recipes</div></td></tr><tr><td><div>False</div></td></tr><tr><td><div>http://www.web2py.com/book/default/chapter/11</div></td></tr></table></div></td></tr><tr><td><div><table><tr><td><div>Components and Plugins</div></td></tr><tr><td><div>False</div></td></tr><tr><td><div>http://www.web2py.com/book/default/chapter/12</div></td></tr></table></div></td></tr><tr><td><div><table><tr><td><div>Deployment Recipes</div></td></tr><tr><td><div>False</div></td></tr><tr><td><div>http://www.web2py.com/book/default/chapter/13</div></td></tr></table></div></td></tr><tr><td><div><table><tr><td><div>Other Recipes</div></td></tr><tr><td><div>False</div></td></tr><tr><td><div>http://www.web2py.com/book/default/chapter/14</div></td></tr></table></div></td></tr><tr><td><div><table><tr><td><div>Helping web2py</div></td></tr><tr><td><div>False</div></td></tr><tr><td><div>http://www.web2py.com/book/default/chapter/15</div></td></tr></table></div></td></tr><tr><td><div><table><tr><td><div>Buy web2py\'s book</div></td></tr><tr><td><div>False</div></td></tr><tr><td><div>http://stores.lulu.com/web2py</div></td></tr></table></div></td></tr></table></div></td></tr></table></div></td></tr><tr><td><div><table><tr><td><div>Community</div></td></tr><tr><td><div>False</div></td></tr><tr><td><div>None</div></td></tr><tr><td><div><table><tr><td><div><table><tr><td><div>Groups</div></td></tr><tr><td><div>False</div></td></tr><tr><td><div>http://www.web2py.com/examples/default/usergroups</div></td></tr></table></div></td></tr><tr><td><div><table><tr><td><div>Twitter</div></td></tr><tr><td><div>False</div></td></tr><tr><td><div>http://twitter.com/web2py</div></td></tr></table></div></td></tr><tr><td><div><table><tr><td><div>Live Chat</div></td></tr><tr><td><div>False</div></td></tr><tr><td><div>http://webchat.freenode.net/?channels=web2py</div></td></tr></table></div></td></tr></table></div></td></tr></table></div></td></tr></table></div></td></tr><tr><td style="font-weight:bold;vertical-align:top;">meta</td><td style="vertical-align:top;">:</td><td><div><table><tr><td style="font-weight:bold;vertical-align:top;">author</td><td style="vertical-align:top;">:</td><td><div>Your Name &lt;you@example.com&gt;</div></td></tr><tr><td style="font-weight:bold;vertical-align:top;">description</td><td style="vertical-align:top;">:</td><td><div>a cool new app</div></td></tr><tr><td style="font-weight:bold;vertical-align:top;">generator</td><td style="vertical-align:top;">:</td><td><div>Web2py Web Framework</div></td></tr><tr><td style="font-weight:bold;vertical-align:top;">keywords</td><td style="vertical-align:top;">:</td><td><div>web2py, python, framework</div></td></tr></table></div></td></tr><tr><td style="font-weight:bold;vertical-align:top;">models_to_run</td><td style="vertical-align:top;">:</td><td><div><table><tr><td><div>^\\w+\\.py$</div></td></tr><tr><td><div>^default/\\w+\\.py$</div></td></tr><tr><td><div>^default/index/\\w+\\.py$</div></td></tr></table></div></td></tr><tr><td style="font-weight:bold;vertical-align:top;">postprocessing</td><td style="vertical-align:top;">:</td><td><div><table></table></div></td></tr><tr><td style="font-weight:bold;vertical-align:top;">session_client</td><td style="vertical-align:top;">:</td><td><div>127.0.0.1</div></td></tr><tr><td style="font-weight:bold;vertical-align:top;">session_cookie_compression_level</td><td style="vertical-align:top;">:</td><td><div>None</div></td></tr><tr><td style="font-weight:bold;vertical-align:top;">session_cookie_expires</td><td style="vertical-align:top;">:</td><td><div>None</div></td></tr><tr><td style="font-weight:bold;vertical-align:top;">session_cookie_key</td><td style="vertical-align:top;">:</td><td><div>None</div></td></tr><tr><td style="font-weight:bold;vertical-align:top;">session_data_name</td><td style="vertical-align:top;">:</td><td><div>session_data_scrumlite</div></td></tr><tr><td style="font-weight:bold;vertical-align:top;">session_file</td><td style="vertical-align:top;">:</td><td><div>None</div></td></tr><tr><td style="font-weight:bold;vertical-align:top;">session_filename</td><td style="vertical-align:top;">:</td><td><div>/home/manmeet/web2py/applications/scrumlite/sessions/127.0.0.1-7525a644-0131-4efd-8aa1-875089d2ee03</div></td></tr><tr><td style="font-weight:bold;vertical-align:top;">session_hash</td><td style="vertical-align:top;">:</td><td><div>c0762cbf4baf7f9af97c051e7fcb8083</div></td></tr><tr><td style="font-weight:bold;vertical-align:top;">session_id</td><td style="vertical-align:top;">:</td><td><div>127.0.0.1-7525a644-0131-4efd-8aa1-875089d2ee03</div></td></tr><tr><td style="font-weight:bold;vertical-align:top;">session_id_name</td><td style="vertical-align:top;">:</td><td><div>session_id_scrumlite</div></td></tr><tr><td style="font-weight:bold;vertical-align:top;">session_masterapp</td><td style="vertical-align:top;">:</td><td><div>scrumlite</div></td></tr><tr><td style="font-weight:bold;vertical-align:top;">session_new</td><td style="vertical-align:top;">:</td><td><div>True</div></td></tr><tr><td style="font-weight:bold;vertical-align:top;">session_storage_type</td><td style="vertical-align:top;">:</td><td><div>file</div></td></tr><tr><td style="font-weight:bold;vertical-align:top;">status</td><td style="vertical-align:top;">:</td><td><div>200</div></td></tr><tr><td style="font-weight:bold;vertical-align:top;">subtitle</td><td style="vertical-align:top;">:</td><td><div></div></td></tr><tr><td style="font-weight:bold;vertical-align:top;">title</td><td style="vertical-align:top;">:</td><td><div>Scrumlite</div></td></tr><tr><td style="font-weight:bold;vertical-align:top;">view</td><td style="vertical-align:top;">:</td><td><div>default/index.html</div></td></tr></table></div>'
tRp123
sS'locals'
p124
(dp125
S'Service'
p126
S"<class 'gluon.tools.Service'>"
p127
sS'OBJECT'
p128
S"<class 'gluon.html.OBJECT'>"
p129
sS'SQLDB'
p130
S"<class 'pydal.base.DAL'>"
p131
sg116
S'<Storage {}>'
p132
sS'LINK'
p133
S"<class 'gluon.html.LINK'>"
p134
sS'BR'
p135
S"<class 'gluon.html.BR'>"
p136
sS'local_import'
p137
S'<function <lambda>>'
p138
sS'OPTGROUP'
p139
S"<class 'gluon.html.OPTGROUP'>"
p140
sS'__package__'
p141
S'None'
p142
sS'PRE'
p143
S"<class 'gluon.html.PRE'>"
p144
sS'IS_INT_IN_RANGE'
p145
S"<class 'gluon.validators.IS_INT_IN_RANGE'>"
p146
sS'left_sidebar_enabled'
p147
S'False'
p148
sS'IS_LOWER'
p149
S"<class 'gluon.validators.IS_LOWER'>"
p150
sS'IS_STRONG'
p151
S"<class 'gluon.validators.IS_STRONG'>"
p152
sS'cache'
p153
S'<gluon.cache.Cache object>'
p154
sS'IS_IN_DB'
p155
S"<class 'gluon.validators.IS_IN_DB'>"
p156
sS'TAG'
p157
S'<gluon.html.__TAG__ object>'
p158
sS'SQLField'
p159
S"<class 'pydal.objects.Field'>"
p160
sS'mail'
p161
S'<gluon.tools.Mail object>'
p162
sS'BODY'
p163
S"<class 'gluon.html.BODY'>"
p164
sS'IS_DATE_IN_RANGE'
p165
S"<class 'gluon.validators.IS_DATE_IN_RANGE'>"
p166
sS'IFRAME'
p167
S"<class 'gluon.html.IFRAME'>"
p168
sS'URL'
p169
S'<function URL>'
p170
sS'__file__'
p171
S"'/home/manmeet/web2py/applications/scrumlite/views/default/index.html'"
p172
sS'db'
p173
S'<DAL uri="sqlite://storage.sqlite">'
p174
sS'auth'
p175
S'<gluon.tools.Auth object>'
p176
sS'P'
S"<class 'gluon.html.P'>"
p177
sS'TFOOT'
p178
S"<class 'gluon.html.TFOOT'>"
p179
sS'XHTML'
p180
S"<class 'gluon.html.XHTML'>"
p181
sS'ON'
p182
S'True'
p183
sS'OL'
p184
S"<class 'gluon.html.OL'>"
p185
sS'TEXTAREA'
p186
S"<class 'gluon.html.TEXTAREA'>"
p187
sS'MENU'
p188
S"<class 'gluon.html.MENU'>"
p189
sS'IS_IMAGE'
p190
S"<class 'gluon.validators.IS_IMAGE'>"
p191
sS'EM'
p192
S"<class 'gluon.html.EM'>"
p193
sS'CODE'
p194
S"<class 'gluon.html.CODE'>"
p195
sS'HTTP'
p196
S"<class 'gluon.http.HTTP'>"
p197
sS'HR'
p198
S"<class 'gluon.html.HR'>"
p199
sS'IS_DATETIME'
p200
S"<class 'gluon.validators.IS_DATETIME'>"
p201
sS'STYLE'
p202
S"<class 'gluon.html.STYLE'>"
p203
sS'LABEL'
p204
S"<class 'gluon.html.LABEL'>"
p205
sS'CLEANUP'
p206
S"<class 'gluon.validators.CLEANUP'>"
p207
sS'plugins'
p208
S'<gluon.tools.PluginManager object>'
p209
sS'SELECT'
p210
S"<class 'gluon.html.SELECT'>"
p211
sS'CENTER'
p212
S"<class 'gluon.html.CENTER'>"
p213
sS'Auth'
p214
S"<class 'gluon.tools.Auth'>"
p215
sS'DEVELOPMENT_MENU'
p216
g183
sS'__builtins__'
p217
S"{'ArithmeticError': <type 'exceptions.ArithmeticError'>, 'AssertionError': <type 'exceptions.AssertionError'>, 'AttributeError': <type 'exceptions.AttributeError'>, 'BaseException': <type 'exceptions.BaseException'>, 'BufferError': <type 'exceptions.BufferError'>, 'BytesWarning': <type 'exceptions.BytesWarning'>, 'DeprecationWarning': <type 'exceptions.DeprecationWarning'>, 'EOFError': <type 'exceptions.EOFError'>, 'Ellipsis': Ellipsis, 'EnvironmentError': <type 'exceptions.EnvironmentError'>, ...}"
p218
sS'HTML'
p219
S"<class 'gluon.html.HTML'>"
p220
sS'SQLFORM'
p221
S"<class 'gluon.sqlhtml.SQLFORM'>"
p222
sS'LOAD'
p223
S'<function LOAD>'
p224
sS'redirect'
p225
S'<function redirect>'
p226
sS'FIELDSET'
p227
S"<class 'gluon.html.FIELDSET'>"
p228
sS'IS_EQUAL_TO'
p229
S"<class 'gluon.validators.IS_EQUAL_TO'>"
p230
sS'embed64'
p231
S'<function embed64>'
p232
sS'IS_LIST_OF'
p233
S"<class 'gluon.validators.IS_LIST_OF'>"
p234
sS'INPUT'
p235
S"<class 'gluon.html.INPUT'>"
p236
sS'EMBED'
p237
S"<class 'gluon.html.EMBED'>"
p238
sS'_'
S'<function _>'
p239
sS'myconf'
p240
S"{'forms': {'formstyle': 'bootstrap3_inline', 'se...'you@gmail.com', 'server': 'smtp.gmail.com:587'}}"
p241
sS'H2'
p242
S"<class 'gluon.html.H2'>"
p243
sS'H3'
p244
S"<class 'gluon.html.H3'>"
p245
sS'AppConfig'
p246
S'<function AppConfig>'
p247
sS'H1'
p248
S"<class 'gluon.html.H1'>"
p249
sS'H6'
p250
S"<class 'gluon.html.H6'>"
p251
sS'H4'
p252
S"<class 'gluon.html.H4'>"
p253
sS'H5'
p254
S"<class 'gluon.html.H5'>"
p255
sS'UL'
p256
S"<class 'gluon.html.UL'>"
p257
sS'IS_UPPER'
p258
S"<class 'gluon.validators.IS_UPPER'>"
p259
sS'xmlescape'
p260
S'<function xmlescape>'
p261
sS'IS_TIME'
p262
S"<class 'gluon.validators.IS_TIME'>"
p263
sS'OPTION'
p264
S"<class 'gluon.html.OPTION'>"
p265
sS'TITLE'
p266
S"<class 'gluon.html.TITLE'>"
p267
sS'CRYPT'
p268
S"<class 'gluon.validators.CRYPT'>"
p269
sS'IS_EMPTY_OR'
p270
S"<class 'gluon.validators.IS_EMPTY_OR'>"
p271
sS'MARKMIN'
p272
S"<class 'gluon.html.MARKMIN'>"
p273
sS'__name__'
p274
S"'__restricted__'"
p275
sS'message'
p276
S"<lazyT 'Howd i got here'>"
p277
sS'STRONG'
p278
S"<class 'gluon.html.STRONG'>"
p279
sS'COL'
p280
S"<class 'gluon.html.COL'>"
p281
sS'service'
p282
S'<gluon.tools.Service object>'
p283
sS'SCRIPT'
p284
S"<class 'gluon.html.SCRIPT'>"
p285
sS'TABLE'
p286
S"<class 'gluon.html.TABLE'>"
p287
sS'IS_IPV4'
p288
S"<class 'gluon.validators.IS_IPV4'>"
p289
sS'IS_LENGTH'
p290
S"<class 'gluon.validators.IS_LENGTH'>"
p291
sS'IS_IPV6'
p292
S"<class 'gluon.validators.IS_IPV6'>"
p293
sS'XML'
p294
S"<class 'gluon.html.XML'>"
p295
sS'B'
S"<class 'gluon.html.B'>"
p296
sS'IMG'
p297
S"<class 'gluon.html.IMG'>"
p298
sS'SQLTABLE'
p299
S"<class 'gluon.sqlhtml.SQLTABLE'>"
p300
sS'IS_MATCH'
p301
S"<class 'gluon.validators.IS_MATCH'>"
p302
sS'IS_ALPHANUMERIC'
p303
S"<class 'gluon.validators.IS_ALPHANUMERIC'>"
p304
sS'SPAN'
p305
S"<class 'gluon.html.SPAN'>"
p306
sS'IS_JSON'
p307
S"<class 'gluon.validators.IS_JSON'>"
p308
sS'IS_IPADDRESS'
p309
S"<class 'gluon.validators.IS_IPADDRESS'>"
p310
sS'IS_SLUG'
p311
S"<class 'gluon.validators.IS_SLUG'>"
p312
sS'BEAUTIFY'
p313
S"<class 'gluon.html.BEAUTIFY'>"
p314
sS'META'
p315
S"<class 'gluon.html.META'>"
p316
sS'BUTTON'
p317
S"<class 'gluon.html.BUTTON'>"
p318
sS'IS_DATE'
p319
S"<class 'gluon.validators.IS_DATE'>"
p320
sS'IS_EMAIL'
p321
S"<class 'gluon.validators.IS_EMAIL'>"
p322
sS'IS_NOT_EMPTY'
p323
S"<class 'gluon.validators.IS_NOT_EMPTY'>"
p324
sS'IS_FLOAT_IN_RANGE'
p325
S"<class 'gluon.validators.IS_FLOAT_IN_RANGE'>"
p326
sS'TBODY'
p327
S"<class 'gluon.html.TBODY'>"
p328
sS'CAT'
p329
S"<class 'gluon.html.CAT'>"
p330
sS'Field'
p331
S"<class 'pydal.objects.Field'>"
p332
sS'IS_LIST_OF_EMAILS'
p333
S"<class 'gluon.validators.IS_LIST_OF_EMAILS'>"
p334
sS'DIV'
p335
S"<class 'gluon.html.DIV'>"
p336
sS'LEGEND'
p337
S"<class 'gluon.html.LEGEND'>"
p338
sS'COLGROUP'
p339
S"<class 'gluon.html.COLGROUP'>"
p340
sS'DAL'
p341
S"<class 'pydal.base.DAL'>"
p342
sS'ASSIGNJS'
p343
S'<function ASSIGNJS>'
p344
sS'TR'
p345
S"<class 'gluon.html.TR'>"
p346
sS'LI'
p347
S"<class 'gluon.html.LI'>"
p348
sS'right_sidebar_enabled'
p349
g183
sS'TH'
p350
S"<class 'gluon.html.TH'>"
p351
sS'TD'
p352
S"<class 'gluon.html.TD'>"
p353
sS'PluginManager'
p354
S"<class 'gluon.tools.PluginManager'>"
p355
sS'IS_URL'
p356
S"<class 'gluon.validators.IS_URL'>"
p357
sS'A'
S"<class 'gluon.html.A'>"
p358
sS'HEAD'
p359
S"<class 'gluon.html.HEAD'>"
p360
sS'IS_DATETIME_IN_RANGE'
p361
S"<class 'gluon.validators.IS_DATETIME_IN_RANGE'>"
p362
sS'FORM'
p363
S"<class 'gluon.html.FORM'>"
p364
sS'I'
S"<class 'gluon.html.I'>"
p365
sS'IS_NOT_IN_DB'
p366
S"<class 'gluon.validators.IS_NOT_IN_DB'>"
p367
sg122
S"<Storage {'body': <cStringIO.StringO object at 0...t 0x7f757024b578>, 'view': 'default/index.html'}>"
p368
sS'THEAD'
p369
S"<class 'gluon.html.THEAD'>"
p370
sS'ANY_OF'
p371
S"<class 'gluon.validators.ANY_OF'>"
p372
sS'IS_NULL_OR'
p373
S"<class 'gluon.validators.IS_EMPTY_OR'>"
p374
sg56
S"<Storage {'_vars': None, 'function': 'index', 'c... '/home/manmeet/web2py/applications/scrumlite/'}>"
p375
sS'IS_EXPR'
p376
S"<class 'gluon.validators.IS_EXPR'>"
p377
sS'T'
S'<gluon.languages.translator object>'
p378
sS'IS_IN_SET'
p379
S"<class 'gluon.validators.IS_IN_SET'>"
p380
sS'IS_UPLOAD_FILENAME'
p381
S"<class 'gluon.validators.IS_UPLOAD_FILENAME'>"
p382
sS'TT'
p383
S"<class 'gluon.html.TT'>"
p384
sS'IS_DECIMAL_IN_RANGE'
p385
S"<class 'gluon.validators.IS_DECIMAL_IN_RANGE'>"
p386
sssS'traceback'
p387
S'Traceback (most recent call last):\n  File "/home/manmeet/web2py/gluon/restricted.py", line 227, in restricted\n    exec ccode in environment\n  File "/home/manmeet/web2py/applications/scrumlite/views/default/index.html", line 22, in <module>\n    <html>\nTypeError: append() takes exactly one argument (2 given)\n'
p388
s.